
./rtthread.elf:     file format elf64-littleriscv


Disassembly of section .start:

0000000080000000 <_start>:
    80000000:	a821                	j	80000018 <g_wake_up+0x10>
    80000002:	deadbeef          	jal	t4,7ffdb5ec <__STACKSIZE__+0x7ffda5ec>
    80000006:	0001                	nop

0000000080000008 <g_wake_up>:
    80000008:	0001                	nop
	...
    80000016:	0000                	unimp
    80000018:	30305073          	csrwi	mideleg,0
    8000001c:	30205073          	csrwi	medeleg,0
    80000020:	30405073          	csrwi	mie,0
    80000024:	34405073          	csrwi	mip,0
    80000028:	00009297          	auipc	t0,0x9
    8000002c:	1ac28293          	addi	t0,t0,428 # 800091d4 <trap_entry>
    80000030:	30529073          	csrw	mtvec,t0
    80000034:	4081                	li	ra,0
    80000036:	4101                	li	sp,0
    80000038:	4181                	li	gp,0
    8000003a:	4201                	li	tp,0
    8000003c:	4281                	li	t0,0
    8000003e:	4301                	li	t1,0
    80000040:	4381                	li	t2,0
    80000042:	4401                	li	s0,0
    80000044:	4481                	li	s1,0
    80000046:	4501                	li	a0,0
    80000048:	4581                	li	a1,0
    8000004a:	4601                	li	a2,0
    8000004c:	4681                	li	a3,0
    8000004e:	4701                	li	a4,0
    80000050:	4781                	li	a5,0
    80000052:	4801                	li	a6,0
    80000054:	4881                	li	a7,0
    80000056:	4901                	li	s2,0
    80000058:	4981                	li	s3,0
    8000005a:	4a01                	li	s4,0
    8000005c:	4a81                	li	s5,0
    8000005e:	4b01                	li	s6,0
    80000060:	4b81                	li	s7,0
    80000062:	4c01                	li	s8,0
    80000064:	4c81                	li	s9,0
    80000066:	4d01                	li	s10,0
    80000068:	4d81                	li	s11,0
    8000006a:	4e01                	li	t3,0
    8000006c:	4e81                	li	t4,0
    8000006e:	4f01                	li	t5,0
    80000070:	4f81                	li	t6,0
    80000072:	6299                	lui	t0,0x6
    80000074:	3002a073          	csrs	mstatus,t0
    80000078:	00301073          	fscsr	zero
    8000007c:	f2000053          	fmv.d.x	ft0,zero
    80000080:	f20000d3          	fmv.d.x	ft1,zero
    80000084:	f2000153          	fmv.d.x	ft2,zero
    80000088:	f20001d3          	fmv.d.x	ft3,zero
    8000008c:	f2000253          	fmv.d.x	ft4,zero
    80000090:	f20002d3          	fmv.d.x	ft5,zero
    80000094:	f2000353          	fmv.d.x	ft6,zero
    80000098:	f20003d3          	fmv.d.x	ft7,zero
    8000009c:	f2000453          	fmv.d.x	fs0,zero
    800000a0:	f20004d3          	fmv.d.x	fs1,zero
    800000a4:	f2000553          	fmv.d.x	fa0,zero
    800000a8:	f20005d3          	fmv.d.x	fa1,zero
    800000ac:	f2000653          	fmv.d.x	fa2,zero
    800000b0:	f20006d3          	fmv.d.x	fa3,zero
    800000b4:	f2000753          	fmv.d.x	fa4,zero
    800000b8:	f20007d3          	fmv.d.x	fa5,zero
    800000bc:	f2000853          	fmv.d.x	fa6,zero
    800000c0:	f20008d3          	fmv.d.x	fa7,zero
    800000c4:	f2000953          	fmv.d.x	fs2,zero
    800000c8:	f20009d3          	fmv.d.x	fs3,zero
    800000cc:	f2000a53          	fmv.d.x	fs4,zero
    800000d0:	f2000ad3          	fmv.d.x	fs5,zero
    800000d4:	f2000b53          	fmv.d.x	fs6,zero
    800000d8:	f2000bd3          	fmv.d.x	fs7,zero
    800000dc:	f2000c53          	fmv.d.x	fs8,zero
    800000e0:	f2000cd3          	fmv.d.x	fs9,zero
    800000e4:	f2000d53          	fmv.d.x	fs10,zero
    800000e8:	f2000dd3          	fmv.d.x	fs11,zero
    800000ec:	f2000e53          	fmv.d.x	ft8,zero
    800000f0:	f2000ed3          	fmv.d.x	ft9,zero
    800000f4:	f2000f53          	fmv.d.x	ft10,zero
    800000f8:	f2000fd3          	fmv.d.x	ft11,zero
    800000fc:	0002a197          	auipc	gp,0x2a
    80000100:	87c18193          	addi	gp,gp,-1924 # 80029978 <__global_pointer$>
    80000104:	f1402573          	csrr	a0,mhartid
    80000108:	84818113          	addi	sp,gp,-1976 # 800291c0 <__stack_start__>
    8000010c:	00150313          	addi	t1,a0,1
    80000110:	6385                	lui	t2,0x1
    80000112:	02730333          	mul	t1,t1,t2
    80000116:	911a                	add	sp,sp,t1
    80000118:	e119                	bnez	a0,8000011e <secondary_cpu_entry>
    8000011a:	6320006f          	j	8000074c <primary_cpu_entry>

000000008000011e <secondary_cpu_entry>:
    8000011e:	00028517          	auipc	a0,0x28
    80000122:	64a50513          	addi	a0,a0,1610 # 80028768 <secondary_boot_flag>
    80000126:	6108                	ld	a0,0(a0)
    80000128:	0000a5b7          	lui	a1,0xa
    8000012c:	55a5859b          	addiw	a1,a1,1370
    80000130:	00b51463          	bne	a0,a1,80000138 <secondary_cpu_entry+0x1a>
    80000134:	2920806f          	j	800083c6 <secondary_cpu_c_start>
    80000138:	b7dd                	j	8000011e <secondary_cpu_entry>
    8000013a:	0000                	unimp
    8000013c:	0000                	unimp
	...

Disassembly of section .text:

0000000080000140 <rt_hw_local_irq_disable>:
    80000140:	30047573          	csrrci	a0,mstatus,8
    80000144:	8082                	ret

0000000080000146 <rt_hw_local_irq_enable>:
    80000146:	30051073          	csrw	mstatus,a0
    8000014a:	8082                	ret

000000008000014c <rt_hw_context_switch_to>:
    8000014c:	00053103          	ld	sp,0(a0)
    80000150:	852e                	mv	a0,a1
    80000152:	7db010ef          	jal	ra,8000212c <rt_cpus_lock_status_restore>
    80000156:	6542                	ld	a0,16(sp)
    80000158:	30051073          	csrw	mstatus,a0
    8000015c:	a0b5                	j	800001c8 <rt_hw_context_switch_exit>

000000008000015e <rt_hw_context_switch>:
    8000015e:	7111                	addi	sp,sp,-256
    80000160:	00253023          	sd	sp,0(a0)
    80000164:	e006                	sd	ra,0(sp)
    80000166:	e406                	sd	ra,8(sp)
    80000168:	30002573          	csrr	a0,mstatus
    8000016c:	8921                	andi	a0,a0,8
    8000016e:	c119                	beqz	a0,80000174 <save_mpie>
    80000170:	08000513          	li	a0,128

0000000080000174 <save_mpie>:
    80000174:	e82a                	sd	a0,16(sp)
    80000176:	f012                	sd	tp,32(sp)
    80000178:	f416                	sd	t0,40(sp)
    8000017a:	f81a                	sd	t1,48(sp)
    8000017c:	fc1e                	sd	t2,56(sp)
    8000017e:	e0a2                	sd	s0,64(sp)
    80000180:	e4a6                	sd	s1,72(sp)
    80000182:	e8aa                	sd	a0,80(sp)
    80000184:	ecae                	sd	a1,88(sp)
    80000186:	f0b2                	sd	a2,96(sp)
    80000188:	f4b6                	sd	a3,104(sp)
    8000018a:	f8ba                	sd	a4,112(sp)
    8000018c:	fcbe                	sd	a5,120(sp)
    8000018e:	e142                	sd	a6,128(sp)
    80000190:	e546                	sd	a7,136(sp)
    80000192:	e94a                	sd	s2,144(sp)
    80000194:	ed4e                	sd	s3,152(sp)
    80000196:	f152                	sd	s4,160(sp)
    80000198:	f556                	sd	s5,168(sp)
    8000019a:	f95a                	sd	s6,176(sp)
    8000019c:	fd5e                	sd	s7,184(sp)
    8000019e:	e1e2                	sd	s8,192(sp)
    800001a0:	e5e6                	sd	s9,200(sp)
    800001a2:	e9ea                	sd	s10,208(sp)
    800001a4:	edee                	sd	s11,216(sp)
    800001a6:	f1f2                	sd	t3,224(sp)
    800001a8:	f5f6                	sd	t4,232(sp)
    800001aa:	f9fa                	sd	t5,240(sp)
    800001ac:	fdfe                	sd	t6,248(sp)
    800001ae:	0005b103          	ld	sp,0(a1) # a000 <__STACKSIZE__+0x9000>
    800001b2:	8532                	mv	a0,a2
    800001b4:	779010ef          	jal	ra,8000212c <rt_cpus_lock_status_restore>
    800001b8:	a801                	j	800001c8 <rt_hw_context_switch_exit>

00000000800001ba <rt_hw_context_switch_interrupt>:
    800001ba:	e188                	sd	a0,0(a1)
    800001bc:	00063103          	ld	sp,0(a2)
    800001c0:	8536                	mv	a0,a3
    800001c2:	76b010ef          	jal	ra,8000212c <rt_cpus_lock_status_restore>
    800001c6:	a009                	j	800001c8 <rt_hw_context_switch_exit>

00000000800001c8 <rt_hw_context_switch_exit>:
    800001c8:	6502                	ld	a0,0(sp)
    800001ca:	34151073          	csrw	mepc,a0
    800001ce:	60a2                	ld	ra,8(sp)
    800001d0:	000022b7          	lui	t0,0x2
    800001d4:	8002829b          	addiw	t0,t0,-2048
    800001d8:	30029073          	csrw	mstatus,t0
    800001dc:	6542                	ld	a0,16(sp)
    800001de:	30052073          	csrs	mstatus,a0
    800001e2:	7202                	ld	tp,32(sp)
    800001e4:	72a2                	ld	t0,40(sp)
    800001e6:	7342                	ld	t1,48(sp)
    800001e8:	73e2                	ld	t2,56(sp)
    800001ea:	6406                	ld	s0,64(sp)
    800001ec:	64a6                	ld	s1,72(sp)
    800001ee:	6546                	ld	a0,80(sp)
    800001f0:	65e6                	ld	a1,88(sp)
    800001f2:	7606                	ld	a2,96(sp)
    800001f4:	76a6                	ld	a3,104(sp)
    800001f6:	7746                	ld	a4,112(sp)
    800001f8:	77e6                	ld	a5,120(sp)
    800001fa:	680a                	ld	a6,128(sp)
    800001fc:	68aa                	ld	a7,136(sp)
    800001fe:	694a                	ld	s2,144(sp)
    80000200:	69ea                	ld	s3,152(sp)
    80000202:	7a0a                	ld	s4,160(sp)
    80000204:	7aaa                	ld	s5,168(sp)
    80000206:	7b4a                	ld	s6,176(sp)
    80000208:	7bea                	ld	s7,184(sp)
    8000020a:	6c0e                	ld	s8,192(sp)
    8000020c:	6cae                	ld	s9,200(sp)
    8000020e:	6d4e                	ld	s10,208(sp)
    80000210:	6dee                	ld	s11,216(sp)
    80000212:	7e0e                	ld	t3,224(sp)
    80000214:	7eae                	ld	t4,232(sp)
    80000216:	7f4e                	ld	t5,240(sp)
    80000218:	7fee                	ld	t6,248(sp)
    8000021a:	6111                	addi	sp,sp,256
    8000021c:	30200073          	mret

0000000080000220 <memset>:
    80000220:	433d                	li	t1,15
    80000222:	872a                	mv	a4,a0
    80000224:	02c37163          	bgeu	t1,a2,80000246 <memset+0x26>
    80000228:	00f77793          	andi	a5,a4,15
    8000022c:	e3c1                	bnez	a5,800002ac <memset+0x8c>
    8000022e:	e1bd                	bnez	a1,80000294 <memset+0x74>
    80000230:	ff067693          	andi	a3,a2,-16
    80000234:	8a3d                	andi	a2,a2,15
    80000236:	96ba                	add	a3,a3,a4
    80000238:	e30c                	sd	a1,0(a4)
    8000023a:	e70c                	sd	a1,8(a4)
    8000023c:	0741                	addi	a4,a4,16
    8000023e:	fed76de3          	bltu	a4,a3,80000238 <memset+0x18>
    80000242:	e211                	bnez	a2,80000246 <memset+0x26>
    80000244:	8082                	ret
    80000246:	40c306b3          	sub	a3,t1,a2
    8000024a:	068a                	slli	a3,a3,0x2
    8000024c:	00000297          	auipc	t0,0x0
    80000250:	9696                	add	a3,a3,t0
    80000252:	00a68067          	jr	10(a3)
    80000256:	00b70723          	sb	a1,14(a4)
    8000025a:	00b706a3          	sb	a1,13(a4)
    8000025e:	00b70623          	sb	a1,12(a4)
    80000262:	00b705a3          	sb	a1,11(a4)
    80000266:	00b70523          	sb	a1,10(a4)
    8000026a:	00b704a3          	sb	a1,9(a4)
    8000026e:	00b70423          	sb	a1,8(a4)
    80000272:	00b703a3          	sb	a1,7(a4)
    80000276:	00b70323          	sb	a1,6(a4)
    8000027a:	00b702a3          	sb	a1,5(a4)
    8000027e:	00b70223          	sb	a1,4(a4)
    80000282:	00b701a3          	sb	a1,3(a4)
    80000286:	00b70123          	sb	a1,2(a4)
    8000028a:	00b700a3          	sb	a1,1(a4)
    8000028e:	00b70023          	sb	a1,0(a4)
    80000292:	8082                	ret
    80000294:	0ff5f593          	andi	a1,a1,255
    80000298:	00859693          	slli	a3,a1,0x8
    8000029c:	8dd5                	or	a1,a1,a3
    8000029e:	01059693          	slli	a3,a1,0x10
    800002a2:	8dd5                	or	a1,a1,a3
    800002a4:	02059693          	slli	a3,a1,0x20
    800002a8:	8dd5                	or	a1,a1,a3
    800002aa:	b759                	j	80000230 <memset+0x10>
    800002ac:	00279693          	slli	a3,a5,0x2
    800002b0:	00000297          	auipc	t0,0x0
    800002b4:	9696                	add	a3,a3,t0
    800002b6:	8286                	mv	t0,ra
    800002b8:	fa2680e7          	jalr	-94(a3)
    800002bc:	8096                	mv	ra,t0
    800002be:	17c1                	addi	a5,a5,-16
    800002c0:	8f1d                	sub	a4,a4,a5
    800002c2:	963e                	add	a2,a2,a5
    800002c4:	f8c371e3          	bgeu	t1,a2,80000246 <memset+0x26>
    800002c8:	b79d                	j	8000022e <memset+0xe>

00000000800002ca <strcmp>:
    800002ca:	00b56733          	or	a4,a0,a1
    800002ce:	53fd                	li	t2,-1
    800002d0:	8b1d                	andi	a4,a4,7
    800002d2:	eb4d                	bnez	a4,80000384 <strcmp+0xba>
    800002d4:	00028797          	auipc	a5,0x28
    800002d8:	48c7b783          	ld	a5,1164(a5) # 80028760 <mask>
    800002dc:	6110                	ld	a2,0(a0)
    800002de:	6194                	ld	a3,0(a1)
    800002e0:	00f672b3          	and	t0,a2,a5
    800002e4:	00f66333          	or	t1,a2,a5
    800002e8:	92be                	add	t0,t0,a5
    800002ea:	0062e2b3          	or	t0,t0,t1
    800002ee:	0a729963          	bne	t0,t2,800003a0 <strcmp+0xd6>
    800002f2:	02d61e63          	bne	a2,a3,8000032e <strcmp+0x64>
    800002f6:	6510                	ld	a2,8(a0)
    800002f8:	6594                	ld	a3,8(a1)
    800002fa:	00f672b3          	and	t0,a2,a5
    800002fe:	00f66333          	or	t1,a2,a5
    80000302:	92be                	add	t0,t0,a5
    80000304:	0062e2b3          	or	t0,t0,t1
    80000308:	08729a63          	bne	t0,t2,8000039c <strcmp+0xd2>
    8000030c:	02d61163          	bne	a2,a3,8000032e <strcmp+0x64>
    80000310:	6910                	ld	a2,16(a0)
    80000312:	6994                	ld	a3,16(a1)
    80000314:	00f672b3          	and	t0,a2,a5
    80000318:	00f66333          	or	t1,a2,a5
    8000031c:	92be                	add	t0,t0,a5
    8000031e:	0062e2b3          	or	t0,t0,t1
    80000322:	08729363          	bne	t0,t2,800003a8 <strcmp+0xde>
    80000326:	0561                	addi	a0,a0,24
    80000328:	05e1                	addi	a1,a1,24
    8000032a:	fad609e3          	beq	a2,a3,800002dc <strcmp+0x12>
    8000032e:	03061713          	slli	a4,a2,0x30
    80000332:	03069793          	slli	a5,a3,0x30
    80000336:	02f71863          	bne	a4,a5,80000366 <strcmp+0x9c>
    8000033a:	02061713          	slli	a4,a2,0x20
    8000033e:	02069793          	slli	a5,a3,0x20
    80000342:	02f71263          	bne	a4,a5,80000366 <strcmp+0x9c>
    80000346:	01061713          	slli	a4,a2,0x10
    8000034a:	01069793          	slli	a5,a3,0x10
    8000034e:	00f71c63          	bne	a4,a5,80000366 <strcmp+0x9c>
    80000352:	03065713          	srli	a4,a2,0x30
    80000356:	0306d793          	srli	a5,a3,0x30
    8000035a:	40f70533          	sub	a0,a4,a5
    8000035e:	0ff57593          	andi	a1,a0,255
    80000362:	e991                	bnez	a1,80000376 <strcmp+0xac>
    80000364:	8082                	ret
    80000366:	9341                	srli	a4,a4,0x30
    80000368:	93c1                	srli	a5,a5,0x30
    8000036a:	40f70533          	sub	a0,a4,a5
    8000036e:	0ff57593          	andi	a1,a0,255
    80000372:	e191                	bnez	a1,80000376 <strcmp+0xac>
    80000374:	8082                	ret
    80000376:	0ff77713          	andi	a4,a4,255
    8000037a:	0ff7f793          	andi	a5,a5,255
    8000037e:	40f70533          	sub	a0,a4,a5
    80000382:	8082                	ret
    80000384:	00054603          	lbu	a2,0(a0)
    80000388:	0005c683          	lbu	a3,0(a1)
    8000038c:	0505                	addi	a0,a0,1
    8000038e:	0585                	addi	a1,a1,1
    80000390:	00d61363          	bne	a2,a3,80000396 <strcmp+0xcc>
    80000394:	fa65                	bnez	a2,80000384 <strcmp+0xba>
    80000396:	40d60533          	sub	a0,a2,a3
    8000039a:	8082                	ret
    8000039c:	0521                	addi	a0,a0,8
    8000039e:	05a1                	addi	a1,a1,8
    800003a0:	fed612e3          	bne	a2,a3,80000384 <strcmp+0xba>
    800003a4:	4501                	li	a0,0
    800003a6:	8082                	ret
    800003a8:	0541                	addi	a0,a0,16
    800003aa:	05c1                	addi	a1,a1,16
    800003ac:	fcd61ce3          	bne	a2,a3,80000384 <strcmp+0xba>
    800003b0:	4501                	li	a0,0
    800003b2:	8082                	ret

00000000800003b4 <main>:
    800003b4:	1101                	addi	sp,sp,-32
    800003b6:	ec06                	sd	ra,24(sp)
    800003b8:	e822                	sd	s0,16(sp)
    800003ba:	1000                	addi	s0,sp,32
    800003bc:	59a130ef          	jal	ra,80013956 <gpio_init>
    800003c0:	458d                	li	a1,3
    800003c2:	4519                	li	a0,6
    800003c4:	5ac130ef          	jal	ra,80013970 <gpio_set_drive_mode>
    800003c8:	03e00593          	li	a1,62
    800003cc:	4539                	li	a0,14
    800003ce:	43e130ef          	jal	ra,8001380c <fpioa_set_function>
    800003d2:	458d                	li	a1,3
    800003d4:	4515                	li	a0,5
    800003d6:	59a130ef          	jal	ra,80013970 <gpio_set_drive_mode>
    800003da:	03d00593          	li	a1,61
    800003de:	4535                	li	a0,13
    800003e0:	42c130ef          	jal	ra,8001380c <fpioa_set_function>
    800003e4:	458d                	li	a1,3
    800003e6:	4511                	li	a0,4
    800003e8:	588130ef          	jal	ra,80013970 <gpio_set_drive_mode>
    800003ec:	03c00593          	li	a1,60
    800003f0:	4531                	li	a0,12
    800003f2:	41a130ef          	jal	ra,8001380c <fpioa_set_function>
    800003f6:	fe042623          	sw	zero,-20(s0)
    800003fa:	a885                	j	8000046a <main+0xb6>
    800003fc:	fe042423          	sw	zero,-24(s0)
    80000400:	a0a9                	j	8000044a <main+0x96>
    80000402:	fe842783          	lw	a5,-24(s0)
    80000406:	0ff7f793          	andi	a5,a5,255
    8000040a:	4719                	li	a4,6
    8000040c:	40f707bb          	subw	a5,a4,a5
    80000410:	0ff7f693          	andi	a3,a5,255
    80000414:	fe842783          	lw	a5,-24(s0)
    80000418:	4705                	li	a4,1
    8000041a:	00f717bb          	sllw	a5,a4,a5
    8000041e:	0007871b          	sext.w	a4,a5
    80000422:	fec42783          	lw	a5,-20(s0)
    80000426:	8ff9                	and	a5,a5,a4
    80000428:	0007871b          	sext.w	a4,a5
    8000042c:	fe842783          	lw	a5,-24(s0)
    80000430:	40f757bb          	sraw	a5,a4,a5
    80000434:	2781                	sext.w	a5,a5
    80000436:	2781                	sext.w	a5,a5
    80000438:	85be                	mv	a1,a5
    8000043a:	8536                	mv	a0,a3
    8000043c:	676130ef          	jal	ra,80013ab2 <gpio_set_pin>
    80000440:	fe842783          	lw	a5,-24(s0)
    80000444:	2785                	addiw	a5,a5,1
    80000446:	fef42423          	sw	a5,-24(s0)
    8000044a:	fe842783          	lw	a5,-24(s0)
    8000044e:	0007871b          	sext.w	a4,a5
    80000452:	4789                	li	a5,2
    80000454:	fae7d7e3          	bge	a5,a4,80000402 <main+0x4e>
    80000458:	1f400513          	li	a0,500
    8000045c:	002070ef          	jal	ra,8000745e <rt_thread_delay>
    80000460:	fec42783          	lw	a5,-20(s0)
    80000464:	2785                	addiw	a5,a5,1
    80000466:	fef42623          	sw	a5,-20(s0)
    8000046a:	fec42783          	lw	a5,-20(s0)
    8000046e:	0007871b          	sext.w	a4,a5
    80000472:	479d                	li	a5,7
    80000474:	f8e7d4e3          	bge	a5,a4,800003fc <main+0x48>
    80000478:	bfbd                	j	800003f6 <main+0x42>

000000008000047a <get_pin_config>:
    8000047a:	7179                	addi	sp,sp,-48
    8000047c:	f406                	sd	ra,40(sp)
    8000047e:	f022                	sd	s0,32(sp)
    80000480:	1800                	addi	s0,sp,48
    80000482:	87aa                	mv	a5,a0
    80000484:	fcb43823          	sd	a1,-48(s0)
    80000488:	fcf42e23          	sw	a5,-36(s0)
    8000048c:	00021517          	auipc	a0,0x21
    80000490:	06450513          	addi	a0,a0,100 # 800214f0 <__clzdi2+0x4a>
    80000494:	4e4040ef          	jal	ra,80004978 <rt_kprintf>
    80000498:	00021517          	auipc	a0,0x21
    8000049c:	0c850513          	addi	a0,a0,200 # 80021560 <__clzdi2+0xba>
    800004a0:	4d8040ef          	jal	ra,80004978 <rt_kprintf>
    800004a4:	00021517          	auipc	a0,0x21
    800004a8:	0ec50513          	addi	a0,a0,236 # 80021590 <__clzdi2+0xea>
    800004ac:	4cc040ef          	jal	ra,80004978 <rt_kprintf>
    800004b0:	fe042623          	sw	zero,-20(s0)
    800004b4:	a889                	j	80000506 <get_pin_config+0x8c>
    800004b6:	fe840713          	addi	a4,s0,-24
    800004ba:	fec42783          	lw	a5,-20(s0)
    800004be:	85ba                	mv	a1,a4
    800004c0:	853e                	mv	a0,a5
    800004c2:	773120ef          	jal	ra,80013434 <fpioa_get_io>
    800004c6:	fe844783          	lbu	a5,-24(s0)
    800004ca:	0007861b          	sext.w	a2,a5
    800004ce:	fe844783          	lbu	a5,-24(s0)
    800004d2:	0007871b          	sext.w	a4,a5
    800004d6:	87ba                	mv	a5,a4
    800004d8:	078a                	slli	a5,a5,0x2
    800004da:	97ba                	add	a5,a5,a4
    800004dc:	078a                	slli	a5,a5,0x2
    800004de:	00024717          	auipc	a4,0x24
    800004e2:	49270713          	addi	a4,a4,1170 # 80024970 <pin_func_name>
    800004e6:	973e                	add	a4,a4,a5
    800004e8:	fec42783          	lw	a5,-20(s0)
    800004ec:	86ba                	mv	a3,a4
    800004ee:	85be                	mv	a1,a5
    800004f0:	00021517          	auipc	a0,0x21
    800004f4:	0d050513          	addi	a0,a0,208 # 800215c0 <__clzdi2+0x11a>
    800004f8:	480040ef          	jal	ra,80004978 <rt_kprintf>
    800004fc:	fec42783          	lw	a5,-20(s0)
    80000500:	2785                	addiw	a5,a5,1
    80000502:	fef42623          	sw	a5,-20(s0)
    80000506:	fec42783          	lw	a5,-20(s0)
    8000050a:	0007871b          	sext.w	a4,a5
    8000050e:	02f00793          	li	a5,47
    80000512:	fae7d2e3          	bge	a5,a4,800004b6 <get_pin_config+0x3c>
    80000516:	00021517          	auipc	a0,0x21
    8000051a:	0ca50513          	addi	a0,a0,202 # 800215e0 <__clzdi2+0x13a>
    8000051e:	45a040ef          	jal	ra,80004978 <rt_kprintf>
    80000522:	0001                	nop
    80000524:	70a2                	ld	ra,40(sp)
    80000526:	7402                	ld	s0,32(sp)
    80000528:	6145                	addi	sp,sp,48
    8000052a:	8082                	ret

000000008000052c <tft_thread>:
    8000052c:	7179                	addi	sp,sp,-48
    8000052e:	f406                	sd	ra,40(sp)
    80000530:	f022                	sd	s0,32(sp)
    80000532:	1800                	addi	s0,sp,48
    80000534:	fca43c23          	sd	a0,-40(s0)
    80000538:	fd843783          	ld	a5,-40(s0)
    8000053c:	439c                	lw	a5,0(a5)
    8000053e:	fef42223          	sw	a5,-28(s0)
    80000542:	fe0407a3          	sb	zero,-17(s0)
    80000546:	fe040723          	sb	zero,-18(s0)
    8000054a:	4785                	li	a5,1
    8000054c:	fef406a3          	sb	a5,-19(s0)
    80000550:	fe040623          	sb	zero,-20(s0)
    80000554:	fe0405a3          	sb	zero,-21(s0)
    80000558:	4785                	li	a5,1
    8000055a:	fef40523          	sb	a5,-22(s0)
    8000055e:	fe041123          	sh	zero,-30(s0)
    80000562:	4501                	li	a0,0
    80000564:	750010ef          	jal	ra,80001cb4 <tft_clear>
    80000568:	fed44703          	lbu	a4,-19(s0)
    8000056c:	fea44783          	lbu	a5,-22(s0)
    80000570:	9fb9                	addw	a5,a5,a4
    80000572:	0ff7f793          	andi	a5,a5,255
    80000576:	fef406a3          	sb	a5,-19(s0)
    8000057a:	fee44703          	lbu	a4,-18(s0)
    8000057e:	feb44783          	lbu	a5,-21(s0)
    80000582:	9fb9                	addw	a5,a5,a4
    80000584:	0ff7f793          	andi	a5,a5,255
    80000588:	fef40723          	sb	a5,-18(s0)
    8000058c:	fef44703          	lbu	a4,-17(s0)
    80000590:	fec44783          	lbu	a5,-20(s0)
    80000594:	9fb9                	addw	a5,a5,a4
    80000596:	0ff7f793          	andi	a5,a5,255
    8000059a:	fef407a3          	sb	a5,-17(s0)
    8000059e:	fed44783          	lbu	a5,-19(s0)
    800005a2:	0187971b          	slliw	a4,a5,0x18
    800005a6:	4187571b          	sraiw	a4,a4,0x18
    800005aa:	47f9                	li	a5,30
    800005ac:	00e7da63          	bge	a5,a4,800005c0 <tft_thread+0x94>
    800005b0:	57fd                	li	a5,-1
    800005b2:	fef40523          	sb	a5,-22(s0)
    800005b6:	4789                	li	a5,2
    800005b8:	fef405a3          	sb	a5,-21(s0)
    800005bc:	fe040623          	sb	zero,-20(s0)
    800005c0:	fee44783          	lbu	a5,-18(s0)
    800005c4:	0187971b          	slliw	a4,a5,0x18
    800005c8:	4187571b          	sraiw	a4,a4,0x18
    800005cc:	03d00793          	li	a5,61
    800005d0:	00e7da63          	bge	a5,a4,800005e4 <tft_thread+0xb8>
    800005d4:	fe040523          	sb	zero,-22(s0)
    800005d8:	57f9                	li	a5,-2
    800005da:	fef405a3          	sb	a5,-21(s0)
    800005de:	4785                	li	a5,1
    800005e0:	fef40623          	sb	a5,-20(s0)
    800005e4:	fef44783          	lbu	a5,-17(s0)
    800005e8:	0187971b          	slliw	a4,a5,0x18
    800005ec:	4187571b          	sraiw	a4,a4,0x18
    800005f0:	47f9                	li	a5,30
    800005f2:	00e7da63          	bge	a5,a4,80000606 <tft_thread+0xda>
    800005f6:	4785                	li	a5,1
    800005f8:	fef40523          	sb	a5,-22(s0)
    800005fc:	fe0405a3          	sb	zero,-21(s0)
    80000600:	57fd                	li	a5,-1
    80000602:	fef40623          	sb	a5,-20(s0)
    80000606:	fef44783          	lbu	a5,-17(s0)
    8000060a:	2781                	sext.w	a5,a5
    8000060c:	00b7979b          	slliw	a5,a5,0xb
    80000610:	2781                	sext.w	a5,a5
    80000612:	0107971b          	slliw	a4,a5,0x10
    80000616:	4107571b          	sraiw	a4,a4,0x10
    8000061a:	fee44783          	lbu	a5,-18(s0)
    8000061e:	2781                	sext.w	a5,a5
    80000620:	0057979b          	slliw	a5,a5,0x5
    80000624:	2781                	sext.w	a5,a5
    80000626:	0107979b          	slliw	a5,a5,0x10
    8000062a:	4107d79b          	sraiw	a5,a5,0x10
    8000062e:	7e07f793          	andi	a5,a5,2016
    80000632:	0107979b          	slliw	a5,a5,0x10
    80000636:	4107d79b          	sraiw	a5,a5,0x10
    8000063a:	8fd9                	or	a5,a5,a4
    8000063c:	0107971b          	slliw	a4,a5,0x10
    80000640:	4107571b          	sraiw	a4,a4,0x10
    80000644:	fed44783          	lbu	a5,-19(s0)
    80000648:	0107979b          	slliw	a5,a5,0x10
    8000064c:	4107d79b          	sraiw	a5,a5,0x10
    80000650:	8bfd                	andi	a5,a5,31
    80000652:	0107979b          	slliw	a5,a5,0x10
    80000656:	4107d79b          	sraiw	a5,a5,0x10
    8000065a:	8fd9                	or	a5,a5,a4
    8000065c:	0107979b          	slliw	a5,a5,0x10
    80000660:	4107d79b          	sraiw	a5,a5,0x10
    80000664:	fef41123          	sh	a5,-30(s0)
    80000668:	fe245783          	lhu	a5,-30(s0)
    8000066c:	853e                	mv	a0,a5
    8000066e:	646010ef          	jal	ra,80001cb4 <tft_clear>
    80000672:	fe442783          	lw	a5,-28(s0)
    80000676:	853e                	mv	a0,a5
    80000678:	60b060ef          	jal	ra,80007482 <rt_thread_mdelay>
    8000067c:	b5f5                	j	80000568 <tft_thread+0x3c>

000000008000067e <try_tft>:
    8000067e:	7139                	addi	sp,sp,-64
    80000680:	fc06                	sd	ra,56(sp)
    80000682:	f822                	sd	s0,48(sp)
    80000684:	0080                	addi	s0,sp,64
    80000686:	87aa                	mv	a5,a0
    80000688:	fcb43023          	sd	a1,-64(s0)
    8000068c:	fcf42623          	sw	a5,-52(s0)
    80000690:	06400793          	li	a5,100
    80000694:	fcf42e23          	sw	a5,-36(s0)
    80000698:	00021517          	auipc	a0,0x21
    8000069c:	fb850513          	addi	a0,a0,-72 # 80021650 <__clzdi2+0x1aa>
    800006a0:	3b9010ef          	jal	ra,80002258 <rt_device_find>
    800006a4:	fea43423          	sd	a0,-24(s0)
    800006a8:	fe843783          	ld	a5,-24(s0)
    800006ac:	c789                	beqz	a5,800006b6 <try_tft+0x38>
    800006ae:	fe843503          	ld	a0,-24(s0)
    800006b2:	453010ef          	jal	ra,80002304 <rt_device_init>
    800006b6:	fcc42783          	lw	a5,-52(s0)
    800006ba:	0007871b          	sext.w	a4,a5
    800006be:	4785                	li	a5,1
    800006c0:	00e7dd63          	bge	a5,a4,800006da <try_tft+0x5c>
    800006c4:	fc043783          	ld	a5,-64(s0)
    800006c8:	07a1                	addi	a5,a5,8
    800006ca:	639c                	ld	a5,0(a5)
    800006cc:	853e                	mv	a0,a5
    800006ce:	5d9160ef          	jal	ra,800174a6 <atoi>
    800006d2:	87aa                	mv	a5,a0
    800006d4:	2781                	sext.w	a5,a5
    800006d6:	fcf42e23          	sw	a5,-36(s0)
    800006da:	fdc40613          	addi	a2,s0,-36
    800006de:	03200793          	li	a5,50
    800006e2:	4729                	li	a4,10
    800006e4:	6685                	lui	a3,0x1
    800006e6:	00000597          	auipc	a1,0x0
    800006ea:	e4658593          	addi	a1,a1,-442 # 8000052c <tft_thread>
    800006ee:	00021517          	auipc	a0,0x21
    800006f2:	f6250513          	addi	a0,a0,-158 # 80021650 <__clzdi2+0x1aa>
    800006f6:	31f060ef          	jal	ra,80007214 <rt_thread_create>
    800006fa:	fea43023          	sd	a0,-32(s0)
    800006fe:	fe043503          	ld	a0,-32(s0)
    80000702:	243060ef          	jal	ra,80007144 <rt_thread_startup>
    80000706:	0001                	nop
    80000708:	70e2                	ld	ra,56(sp)
    8000070a:	7442                	ld	s0,48(sp)
    8000070c:	6121                	addi	sp,sp,64
    8000070e:	8082                	ret

0000000080000710 <init_bss>:
    80000710:	1101                	addi	sp,sp,-32
    80000712:	ec22                	sd	s0,24(sp)
    80000714:	1000                	addi	s0,sp,32
    80000716:	0002b797          	auipc	a5,0x2b
    8000071a:	aaa78793          	addi	a5,a5,-1366 # 8002b1c0 <__stack_cpu1>
    8000071e:	fef43423          	sd	a5,-24(s0)
    80000722:	a809                	j	80000734 <init_bss+0x24>
    80000724:	fe843783          	ld	a5,-24(s0)
    80000728:	00478713          	addi	a4,a5,4
    8000072c:	fee43423          	sd	a4,-24(s0)
    80000730:	0007a023          	sw	zero,0(a5)
    80000734:	fe843703          	ld	a4,-24(s0)
    80000738:	0002f797          	auipc	a5,0x2f
    8000073c:	31178793          	addi	a5,a5,785 # 8002fa49 <__bss_end>
    80000740:	fef762e3          	bltu	a4,a5,80000724 <init_bss+0x14>
    80000744:	0001                	nop
    80000746:	6462                	ld	s0,24(sp)
    80000748:	6105                	addi	sp,sp,32
    8000074a:	8082                	ret

000000008000074c <primary_cpu_entry>:
    8000074c:	1141                	addi	sp,sp,-16
    8000074e:	e406                	sd	ra,8(sp)
    80000750:	e022                	sd	s0,0(sp)
    80000752:	0800                	addi	s0,sp,16
    80000754:	fbdff0ef          	jal	ra,80000710 <init_bss>
    80000758:	0f3010ef          	jal	ra,8000204a <rt_cpus_lock>
    8000075c:	7c2010ef          	jal	ra,80001f1e <entry>
    80000760:	0001                	nop
    80000762:	60a2                	ld	ra,8(sp)
    80000764:	6402                	ld	s0,0(sp)
    80000766:	0141                	addi	sp,sp,16
    80000768:	8082                	ret

000000008000076a <freq>:
    8000076a:	1101                	addi	sp,sp,-32
    8000076c:	ec06                	sd	ra,24(sp)
    8000076e:	e822                	sd	s0,16(sp)
    80000770:	1000                	addi	s0,sp,32
    80000772:	fe043423          	sd	zero,-24(s0)
    80000776:	4501                	li	a0,0
    80000778:	098160ef          	jal	ra,80016810 <sysctl_clock_get_freq>
    8000077c:	87aa                	mv	a5,a0
    8000077e:	2781                	sext.w	a5,a5
    80000780:	1782                	slli	a5,a5,0x20
    80000782:	9381                	srli	a5,a5,0x20
    80000784:	fef43423          	sd	a5,-24(s0)
    80000788:	fe843583          	ld	a1,-24(s0)
    8000078c:	00021517          	auipc	a0,0x21
    80000790:	ecc50513          	addi	a0,a0,-308 # 80021658 <__clzdi2+0x1b2>
    80000794:	1e4040ef          	jal	ra,80004978 <rt_kprintf>
    80000798:	4505                	li	a0,1
    8000079a:	076160ef          	jal	ra,80016810 <sysctl_clock_get_freq>
    8000079e:	87aa                	mv	a5,a0
    800007a0:	2781                	sext.w	a5,a5
    800007a2:	1782                	slli	a5,a5,0x20
    800007a4:	9381                	srli	a5,a5,0x20
    800007a6:	fef43423          	sd	a5,-24(s0)
    800007aa:	fe843583          	ld	a1,-24(s0)
    800007ae:	00021517          	auipc	a0,0x21
    800007b2:	eba50513          	addi	a0,a0,-326 # 80021668 <__clzdi2+0x1c2>
    800007b6:	1c2040ef          	jal	ra,80004978 <rt_kprintf>
    800007ba:	4509                	li	a0,2
    800007bc:	054160ef          	jal	ra,80016810 <sysctl_clock_get_freq>
    800007c0:	87aa                	mv	a5,a0
    800007c2:	2781                	sext.w	a5,a5
    800007c4:	1782                	slli	a5,a5,0x20
    800007c6:	9381                	srli	a5,a5,0x20
    800007c8:	fef43423          	sd	a5,-24(s0)
    800007cc:	fe843583          	ld	a1,-24(s0)
    800007d0:	00021517          	auipc	a0,0x21
    800007d4:	ea850513          	addi	a0,a0,-344 # 80021678 <__clzdi2+0x1d2>
    800007d8:	1a0040ef          	jal	ra,80004978 <rt_kprintf>
    800007dc:	450d                	li	a0,3
    800007de:	032160ef          	jal	ra,80016810 <sysctl_clock_get_freq>
    800007e2:	87aa                	mv	a5,a0
    800007e4:	2781                	sext.w	a5,a5
    800007e6:	1782                	slli	a5,a5,0x20
    800007e8:	9381                	srli	a5,a5,0x20
    800007ea:	fef43423          	sd	a5,-24(s0)
    800007ee:	fe843583          	ld	a1,-24(s0)
    800007f2:	00021517          	auipc	a0,0x21
    800007f6:	e9650513          	addi	a0,a0,-362 # 80021688 <__clzdi2+0x1e2>
    800007fa:	17e040ef          	jal	ra,80004978 <rt_kprintf>
    800007fe:	4519                	li	a0,6
    80000800:	010160ef          	jal	ra,80016810 <sysctl_clock_get_freq>
    80000804:	87aa                	mv	a5,a0
    80000806:	2781                	sext.w	a5,a5
    80000808:	1782                	slli	a5,a5,0x20
    8000080a:	9381                	srli	a5,a5,0x20
    8000080c:	fef43423          	sd	a5,-24(s0)
    80000810:	fe843583          	ld	a1,-24(s0)
    80000814:	00021517          	auipc	a0,0x21
    80000818:	e8450513          	addi	a0,a0,-380 # 80021698 <__clzdi2+0x1f2>
    8000081c:	15c040ef          	jal	ra,80004978 <rt_kprintf>
    80000820:	451d                	li	a0,7
    80000822:	7ef150ef          	jal	ra,80016810 <sysctl_clock_get_freq>
    80000826:	87aa                	mv	a5,a0
    80000828:	2781                	sext.w	a5,a5
    8000082a:	1782                	slli	a5,a5,0x20
    8000082c:	9381                	srli	a5,a5,0x20
    8000082e:	fef43423          	sd	a5,-24(s0)
    80000832:	fe843583          	ld	a1,-24(s0)
    80000836:	00021517          	auipc	a0,0x21
    8000083a:	e7250513          	addi	a0,a0,-398 # 800216a8 <__clzdi2+0x202>
    8000083e:	13a040ef          	jal	ra,80004978 <rt_kprintf>
    80000842:	4521                	li	a0,8
    80000844:	7cd150ef          	jal	ra,80016810 <sysctl_clock_get_freq>
    80000848:	87aa                	mv	a5,a0
    8000084a:	2781                	sext.w	a5,a5
    8000084c:	1782                	slli	a5,a5,0x20
    8000084e:	9381                	srli	a5,a5,0x20
    80000850:	fef43423          	sd	a5,-24(s0)
    80000854:	fe843583          	ld	a1,-24(s0)
    80000858:	00021517          	auipc	a0,0x21
    8000085c:	e6050513          	addi	a0,a0,-416 # 800216b8 <__clzdi2+0x212>
    80000860:	118040ef          	jal	ra,80004978 <rt_kprintf>
    80000864:	02900513          	li	a0,41
    80000868:	7a9150ef          	jal	ra,80016810 <sysctl_clock_get_freq>
    8000086c:	87aa                	mv	a5,a0
    8000086e:	2781                	sext.w	a5,a5
    80000870:	1782                	slli	a5,a5,0x20
    80000872:	9381                	srli	a5,a5,0x20
    80000874:	fef43423          	sd	a5,-24(s0)
    80000878:	fe843583          	ld	a1,-24(s0)
    8000087c:	00021517          	auipc	a0,0x21
    80000880:	e4c50513          	addi	a0,a0,-436 # 800216c8 <__clzdi2+0x222>
    80000884:	0f4040ef          	jal	ra,80004978 <rt_kprintf>
    80000888:	196120ef          	jal	ra,80012a1e <clint_get_time>
    8000088c:	fea43423          	sd	a0,-24(s0)
    80000890:	fe843583          	ld	a1,-24(s0)
    80000894:	00021517          	auipc	a0,0x21
    80000898:	e4450513          	addi	a0,a0,-444 # 800216d8 <__clzdi2+0x232>
    8000089c:	0dc040ef          	jal	ra,80004978 <rt_kprintf>
    800008a0:	4781                	li	a5,0
    800008a2:	853e                	mv	a0,a5
    800008a4:	60e2                	ld	ra,24(sp)
    800008a6:	6442                	ld	s0,16(sp)
    800008a8:	6105                	addi	sp,sp,32
    800008aa:	8082                	ret

00000000800008ac <rt_hw_board_init>:
    800008ac:	1141                	addi	sp,sp,-16
    800008ae:	e406                	sd	ra,8(sp)
    800008b0:	e022                	sd	s0,0(sp)
    800008b2:	0800                	addi	s0,sp,16
    800008b4:	2faf17b7          	lui	a5,0x2faf1
    800008b8:	80078593          	addi	a1,a5,-2048 # 2faf0800 <__STACKSIZE__+0x2faef800>
    800008bc:	4501                	li	a0,0
    800008be:	107160ef          	jal	ra,800171c4 <sysctl_pll_set_freq>
    800008c2:	17d787b7          	lui	a5,0x17d78
    800008c6:	40078593          	addi	a1,a5,1024 # 17d78400 <__STACKSIZE__+0x17d77400>
    800008ca:	4505                	li	a0,1
    800008cc:	0f9160ef          	jal	ra,800171c4 <sysctl_pll_set_freq>
    800008d0:	1af120ef          	jal	ra,8001327e <fpioa_init>
    800008d4:	788120ef          	jal	ra,8001305c <dmac_init>
    800008d8:	4dd070ef          	jal	ra,800085b4 <rt_hw_interrupt_init>
    800008dc:	072000ef          	jal	ra,8000094e <rt_hw_uart_init>
    800008e0:	00f080ef          	jal	ra,800090ee <rt_hw_tick_init>
    800008e4:	353070ef          	jal	ra,80008436 <rt_hw_clint_ipi_enable>
    800008e8:	00021517          	auipc	a0,0x21
    800008ec:	e0050513          	addi	a0,a0,-512 # 800216e8 <__clzdi2+0x242>
    800008f0:	006040ef          	jal	ra,800048f6 <rt_console_set_device>
    800008f4:	0002f717          	auipc	a4,0x2f
    800008f8:	15570713          	addi	a4,a4,341 # 8002fa49 <__bss_end>
    800008fc:	40300793          	li	a5,1027
    80000900:	01579613          	slli	a2,a5,0x15
    80000904:	85ba                	mv	a1,a4
    80000906:	00021517          	auipc	a0,0x21
    8000090a:	dea50513          	addi	a0,a0,-534 # 800216f0 <__clzdi2+0x24a>
    8000090e:	06a040ef          	jal	ra,80004978 <rt_kprintf>
    80000912:	40300793          	li	a5,1027
    80000916:	01579593          	slli	a1,a5,0x15
    8000091a:	0002f517          	auipc	a0,0x2f
    8000091e:	12f50513          	addi	a0,a0,303 # 8002fa49 <__bss_end>
    80000922:	58c050ef          	jal	ra,80005eae <rt_system_heap_init>
    80000926:	574010ef          	jal	ra,80001e9a <rt_components_board_init>
    8000092a:	0001                	nop
    8000092c:	60a2                	ld	ra,8(sp)
    8000092e:	6402                	ld	s0,0(sp)
    80000930:	0141                	addi	sp,sp,16
    80000932:	8082                	ret

0000000080000934 <rt_hw_cpu_reset>:
    80000934:	1141                	addi	sp,sp,-16
    80000936:	e422                	sd	s0,8(sp)
    80000938:	0800                	addi	s0,sp,16
    8000093a:	00028797          	auipc	a5,0x28
    8000093e:	e1678793          	addi	a5,a5,-490 # 80028750 <sysctl>
    80000942:	6398                	ld	a4,0(a5)
    80000944:	5b1c                	lw	a5,48(a4)
    80000946:	0017e793          	ori	a5,a5,1
    8000094a:	db1c                	sw	a5,48(a4)
    8000094c:	a001                	j	8000094c <rt_hw_cpu_reset+0x18>

000000008000094e <rt_hw_uart_init>:
    8000094e:	7179                	addi	sp,sp,-48
    80000950:	f406                	sd	ra,40(sp)
    80000952:	f022                	sd	s0,32(sp)
    80000954:	1800                	addi	s0,sp,48
    80000956:	67f1                	lui	a5,0x1c
    80000958:	20078793          	addi	a5,a5,512 # 1c200 <__STACKSIZE__+0x1b200>
    8000095c:	fcf42c23          	sw	a5,-40(s0)
    80000960:	fdc42783          	lw	a5,-36(s0)
    80000964:	9bc1                	andi	a5,a5,-16
    80000966:	0087e793          	ori	a5,a5,8
    8000096a:	fcf42e23          	sw	a5,-36(s0)
    8000096e:	fdc42783          	lw	a5,-36(s0)
    80000972:	fcf7f793          	andi	a5,a5,-49
    80000976:	fcf42e23          	sw	a5,-36(s0)
    8000097a:	fdc42783          	lw	a5,-36(s0)
    8000097e:	f3f7f793          	andi	a5,a5,-193
    80000982:	fcf42e23          	sw	a5,-36(s0)
    80000986:	fdc42783          	lw	a5,-36(s0)
    8000098a:	eff7f793          	andi	a5,a5,-257
    8000098e:	fcf42e23          	sw	a5,-36(s0)
    80000992:	fdc42783          	lw	a5,-36(s0)
    80000996:	dff7f793          	andi	a5,a5,-513
    8000099a:	fcf42e23          	sw	a5,-36(s0)
    8000099e:	fdc42703          	lw	a4,-36(s0)
    800009a2:	fc0007b7          	lui	a5,0xfc000
    800009a6:	3ff78793          	addi	a5,a5,1023 # fffffffffc0003ff <__bss_end+0xffffffff7bfd09b6>
    800009aa:	8ff9                	and	a5,a5,a4
    800009ac:	873e                	mv	a4,a5
    800009ae:	67c1                	lui	a5,0x10
    800009b0:	8fd9                	or	a5,a5,a4
    800009b2:	fcf42e23          	sw	a5,-36(s0)
    800009b6:	fdc42703          	lw	a4,-36(s0)
    800009ba:	040007b7          	lui	a5,0x4000
    800009be:	17fd                	addi	a5,a5,-1
    800009c0:	8ff9                	and	a5,a5,a4
    800009c2:	fcf42e23          	sw	a5,-36(s0)
    800009c6:	0002b797          	auipc	a5,0x2b
    800009ca:	97a78793          	addi	a5,a5,-1670 # 8002b340 <serial_hs.5201>
    800009ce:	fef43423          	sd	a5,-24(s0)
    800009d2:	0002a797          	auipc	a5,0x2a
    800009d6:	7ee78793          	addi	a5,a5,2030 # 8002b1c0 <__stack_cpu1>
    800009da:	fef43023          	sd	a5,-32(s0)
    800009de:	fe843783          	ld	a5,-24(s0)
    800009e2:	00025717          	auipc	a4,0x25
    800009e6:	41670713          	addi	a4,a4,1046 # 80025df8 <_uart_ops>
    800009ea:	efd8                	sd	a4,152(a5)
    800009ec:	fe843783          	ld	a5,-24(s0)
    800009f0:	fd843703          	ld	a4,-40(s0)
    800009f4:	f3d8                	sd	a4,160(a5)
    800009f6:	fe843783          	ld	a5,-24(s0)
    800009fa:	6771                	lui	a4,0x1c
    800009fc:	20070713          	addi	a4,a4,512 # 1c200 <__STACKSIZE__+0x1b200>
    80000a00:	0ae7a023          	sw	a4,160(a5)
    80000a04:	fe043783          	ld	a5,-32(s0)
    80000a08:	38000737          	lui	a4,0x38000
    80000a0c:	c398                	sw	a4,0(a5)
    80000a0e:	fe043783          	ld	a5,-32(s0)
    80000a12:	02100713          	li	a4,33
    80000a16:	c3d8                	sw	a4,4(a5)
    80000a18:	fe043683          	ld	a3,-32(s0)
    80000a1c:	10300613          	li	a2,259
    80000a20:	00021597          	auipc	a1,0x21
    80000a24:	cf058593          	addi	a1,a1,-784 # 80021710 <__clzdi2+0x26a>
    80000a28:	fe843503          	ld	a0,-24(s0)
    80000a2c:	2cb0c0ef          	jal	ra,8000d4f6 <rt_hw_serial_register>
    80000a30:	4781                	li	a5,0
    80000a32:	853e                	mv	a0,a5
    80000a34:	70a2                	ld	ra,40(sp)
    80000a36:	7402                	ld	s0,32(sp)
    80000a38:	6145                	addi	sp,sp,48
    80000a3a:	8082                	ret

0000000080000a3c <uart_configure>:
    80000a3c:	7179                	addi	sp,sp,-48
    80000a3e:	f406                	sd	ra,40(sp)
    80000a40:	f022                	sd	s0,32(sp)
    80000a42:	1800                	addi	s0,sp,48
    80000a44:	fca43c23          	sd	a0,-40(s0)
    80000a48:	fcb43823          	sd	a1,-48(s0)
    80000a4c:	450d                	li	a0,3
    80000a4e:	5c3150ef          	jal	ra,80016810 <sysctl_clock_get_freq>
    80000a52:	87aa                	mv	a5,a0
    80000a54:	fef42623          	sw	a5,-20(s0)
    80000a58:	fd043783          	ld	a5,-48(s0)
    80000a5c:	439c                	lw	a5,0(a5)
    80000a5e:	fec42703          	lw	a4,-20(s0)
    80000a62:	02f757bb          	divuw	a5,a4,a5
    80000a66:	2781                	sext.w	a5,a5
    80000a68:	17c2                	slli	a5,a5,0x30
    80000a6a:	93c1                	srli	a5,a5,0x30
    80000a6c:	37fd                	addiw	a5,a5,-1
    80000a6e:	fef41523          	sh	a5,-22(s0)
    80000a72:	fd843783          	ld	a5,-40(s0)
    80000a76:	ef89                	bnez	a5,80000a90 <uart_configure+0x54>
    80000a78:	07a00613          	li	a2,122
    80000a7c:	00025597          	auipc	a1,0x25
    80000a80:	3a458593          	addi	a1,a1,932 # 80025e20 <__FUNCTION__.5211>
    80000a84:	00021517          	auipc	a0,0x21
    80000a88:	c9450513          	addi	a0,a0,-876 # 80021718 <__clzdi2+0x272>
    80000a8c:	0ac040ef          	jal	ra,80004b38 <rt_assert_handler>
    80000a90:	fd843783          	ld	a5,-40(s0)
    80000a94:	fd043703          	ld	a4,-48(s0)
    80000a98:	4314                	lw	a3,0(a4)
    80000a9a:	0ad7a023          	sw	a3,160(a5)
    80000a9e:	4358                	lw	a4,4(a4)
    80000aa0:	0ae7a223          	sw	a4,164(a5)
    80000aa4:	fd843783          	ld	a5,-40(s0)
    80000aa8:	6bdc                	ld	a5,144(a5)
    80000aaa:	fef43023          	sd	a5,-32(s0)
    80000aae:	fe043783          	ld	a5,-32(s0)
    80000ab2:	ef89                	bnez	a5,80000acc <uart_configure+0x90>
    80000ab4:	07e00613          	li	a2,126
    80000ab8:	00025597          	auipc	a1,0x25
    80000abc:	36858593          	addi	a1,a1,872 # 80025e20 <__FUNCTION__.5211>
    80000ac0:	00021517          	auipc	a0,0x21
    80000ac4:	c7050513          	addi	a0,a0,-912 # 80021730 <__clzdi2+0x28a>
    80000ac8:	070040ef          	jal	ra,80004b38 <rt_assert_handler>
    80000acc:	fe043783          	ld	a5,-32(s0)
    80000ad0:	439c                	lw	a5,0(a5)
    80000ad2:	873e                	mv	a4,a5
    80000ad4:	380007b7          	lui	a5,0x38000
    80000ad8:	08f71363          	bne	a4,a5,80000b5e <uart_configure+0x122>
    80000adc:	38000737          	lui	a4,0x38000
    80000ae0:	fea45603          	lhu	a2,-22(s0)
    80000ae4:	4f1c                	lw	a5,24(a4)
    80000ae6:	66c1                	lui	a3,0x10
    80000ae8:	16fd                	addi	a3,a3,-1
    80000aea:	8e75                	and	a2,a2,a3
    80000aec:	76c1                	lui	a3,0xffff0
    80000aee:	8ff5                	and	a5,a5,a3
    80000af0:	86be                	mv	a3,a5
    80000af2:	87b2                	mv	a5,a2
    80000af4:	8fd5                	or	a5,a5,a3
    80000af6:	cf1c                	sw	a5,24(a4)
    80000af8:	38000737          	lui	a4,0x38000
    80000afc:	471c                	lw	a5,8(a4)
    80000afe:	0017e793          	ori	a5,a5,1
    80000b02:	c71c                	sw	a5,8(a4)
    80000b04:	38000737          	lui	a4,0x38000
    80000b08:	475c                	lw	a5,12(a4)
    80000b0a:	0017e793          	ori	a5,a5,1
    80000b0e:	c75c                	sw	a5,12(a4)
    80000b10:	38000737          	lui	a4,0x38000
    80000b14:	471c                	lw	a5,8(a4)
    80000b16:	fff906b7          	lui	a3,0xfff90
    80000b1a:	16fd                	addi	a3,a3,-1
    80000b1c:	8ff5                	and	a5,a5,a3
    80000b1e:	c71c                	sw	a5,8(a4)
    80000b20:	38000737          	lui	a4,0x38000
    80000b24:	475c                	lw	a5,12(a4)
    80000b26:	fff906b7          	lui	a3,0xfff90
    80000b2a:	16fd                	addi	a3,a3,-1
    80000b2c:	8ff5                	and	a5,a5,a3
    80000b2e:	c75c                	sw	a5,12(a4)
    80000b30:	38000737          	lui	a4,0x38000
    80000b34:	4b5c                	lw	a5,20(a4)
    80000b36:	0017e793          	ori	a5,a5,1
    80000b3a:	cb5c                	sw	a5,20(a4)
    80000b3c:	38000737          	lui	a4,0x38000
    80000b40:	4b5c                	lw	a5,20(a4)
    80000b42:	0027e793          	ori	a5,a5,2
    80000b46:	cb5c                	sw	a5,20(a4)
    80000b48:	38000737          	lui	a4,0x38000
    80000b4c:	4b1c                	lw	a5,16(a4)
    80000b4e:	9bf9                	andi	a5,a5,-2
    80000b50:	cb1c                	sw	a5,16(a4)
    80000b52:	38000737          	lui	a4,0x38000
    80000b56:	4b1c                	lw	a5,16(a4)
    80000b58:	0027e793          	ori	a5,a5,2
    80000b5c:	cb1c                	sw	a5,16(a4)
    80000b5e:	4781                	li	a5,0
    80000b60:	853e                	mv	a0,a5
    80000b62:	70a2                	ld	ra,40(sp)
    80000b64:	7402                	ld	s0,32(sp)
    80000b66:	6145                	addi	sp,sp,48
    80000b68:	8082                	ret

0000000080000b6a <uart_control>:
    80000b6a:	7139                	addi	sp,sp,-64
    80000b6c:	fc06                	sd	ra,56(sp)
    80000b6e:	f822                	sd	s0,48(sp)
    80000b70:	0080                	addi	s0,sp,64
    80000b72:	fca43c23          	sd	a0,-40(s0)
    80000b76:	87ae                	mv	a5,a1
    80000b78:	fcc43423          	sd	a2,-56(s0)
    80000b7c:	fcf42a23          	sw	a5,-44(s0)
    80000b80:	fd843783          	ld	a5,-40(s0)
    80000b84:	6bdc                	ld	a5,144(a5)
    80000b86:	fef43423          	sd	a5,-24(s0)
    80000b8a:	fe843783          	ld	a5,-24(s0)
    80000b8e:	ef89                	bnez	a5,80000ba8 <uart_control+0x3e>
    80000b90:	09a00613          	li	a2,154
    80000b94:	00025597          	auipc	a1,0x25
    80000b98:	29c58593          	addi	a1,a1,668 # 80025e30 <__FUNCTION__.5218>
    80000b9c:	00021517          	auipc	a0,0x21
    80000ba0:	b9450513          	addi	a0,a0,-1132 # 80021730 <__clzdi2+0x28a>
    80000ba4:	795030ef          	jal	ra,80004b38 <rt_assert_handler>
    80000ba8:	fd442783          	lw	a5,-44(s0)
    80000bac:	0007871b          	sext.w	a4,a5
    80000bb0:	47c1                	li	a5,16
    80000bb2:	02f70163          	beq	a4,a5,80000bd4 <uart_control+0x6a>
    80000bb6:	fd442783          	lw	a5,-44(s0)
    80000bba:	0007871b          	sext.w	a4,a5
    80000bbe:	47c5                	li	a5,17
    80000bc0:	04f71263          	bne	a4,a5,80000c04 <uart_control+0x9a>
    80000bc4:	fe843783          	ld	a5,-24(s0)
    80000bc8:	43dc                	lw	a5,4(a5)
    80000bca:	2781                	sext.w	a5,a5
    80000bcc:	853e                	mv	a0,a5
    80000bce:	389070ef          	jal	ra,80008756 <rt_hw_interrupt_mask>
    80000bd2:	a80d                	j	80000c04 <uart_control+0x9a>
    80000bd4:	fe843783          	ld	a5,-24(s0)
    80000bd8:	43dc                	lw	a5,4(a5)
    80000bda:	2781                	sext.w	a5,a5
    80000bdc:	fd843703          	ld	a4,-40(s0)
    80000be0:	86ba                	mv	a3,a4
    80000be2:	fd843603          	ld	a2,-40(s0)
    80000be6:	00000597          	auipc	a1,0x0
    80000bea:	0de58593          	addi	a1,a1,222 # 80000cc4 <uart_irq_handler>
    80000bee:	853e                	mv	a0,a5
    80000bf0:	3b7070ef          	jal	ra,800087a6 <rt_hw_interrupt_install>
    80000bf4:	fe843783          	ld	a5,-24(s0)
    80000bf8:	43dc                	lw	a5,4(a5)
    80000bfa:	2781                	sext.w	a5,a5
    80000bfc:	853e                	mv	a0,a5
    80000bfe:	37b070ef          	jal	ra,80008778 <rt_hw_interrupt_umask>
    80000c02:	0001                	nop
    80000c04:	4781                	li	a5,0
    80000c06:	853e                	mv	a0,a5
    80000c08:	70e2                	ld	ra,56(sp)
    80000c0a:	7442                	ld	s0,48(sp)
    80000c0c:	6121                	addi	sp,sp,64
    80000c0e:	8082                	ret

0000000080000c10 <drv_uart_putc>:
    80000c10:	7179                	addi	sp,sp,-48
    80000c12:	f422                	sd	s0,40(sp)
    80000c14:	1800                	addi	s0,sp,48
    80000c16:	fca43c23          	sd	a0,-40(s0)
    80000c1a:	87ae                	mv	a5,a1
    80000c1c:	fcf40ba3          	sb	a5,-41(s0)
    80000c20:	fd843783          	ld	a5,-40(s0)
    80000c24:	6bdc                	ld	a5,144(a5)
    80000c26:	fef43423          	sd	a5,-24(s0)
    80000c2a:	fe843783          	ld	a5,-24(s0)
    80000c2e:	439c                	lw	a5,0(a5)
    80000c30:	873e                	mv	a4,a5
    80000c32:	380007b7          	lui	a5,0x38000
    80000c36:	02f71863          	bne	a4,a5,80000c66 <drv_uart_putc+0x56>
    80000c3a:	0001                	nop
    80000c3c:	380007b7          	lui	a5,0x38000
    80000c40:	439c                	lw	a5,0(a5)
    80000c42:	01f7d79b          	srliw	a5,a5,0x1f
    80000c46:	0ff7f793          	andi	a5,a5,255
    80000c4a:	fbed                	bnez	a5,80000c3c <drv_uart_putc+0x2c>
    80000c4c:	38000737          	lui	a4,0x38000
    80000c50:	fd744683          	lbu	a3,-41(s0)
    80000c54:	431c                	lw	a5,0(a4)
    80000c56:	0ff6f613          	andi	a2,a3,255
    80000c5a:	f007f793          	andi	a5,a5,-256
    80000c5e:	86be                	mv	a3,a5
    80000c60:	87b2                	mv	a5,a2
    80000c62:	8fd5                	or	a5,a5,a3
    80000c64:	c31c                	sw	a5,0(a4)
    80000c66:	4785                	li	a5,1
    80000c68:	853e                	mv	a0,a5
    80000c6a:	7422                	ld	s0,40(sp)
    80000c6c:	6145                	addi	sp,sp,48
    80000c6e:	8082                	ret

0000000080000c70 <drv_uart_getc>:
    80000c70:	7179                	addi	sp,sp,-48
    80000c72:	f422                	sd	s0,40(sp)
    80000c74:	1800                	addi	s0,sp,48
    80000c76:	fca43c23          	sd	a0,-40(s0)
    80000c7a:	fd843783          	ld	a5,-40(s0)
    80000c7e:	6bdc                	ld	a5,144(a5)
    80000c80:	fef43423          	sd	a5,-24(s0)
    80000c84:	fe843783          	ld	a5,-24(s0)
    80000c88:	439c                	lw	a5,0(a5)
    80000c8a:	873e                	mv	a4,a5
    80000c8c:	380007b7          	lui	a5,0x38000
    80000c90:	02f71563          	bne	a4,a5,80000cba <drv_uart_getc+0x4a>
    80000c94:	380007b7          	lui	a5,0x38000
    80000c98:	43dc                	lw	a5,4(a5)
    80000c9a:	fef42023          	sw	a5,-32(s0)
    80000c9e:	fe042783          	lw	a5,-32(s0)
    80000ca2:	873e                	mv	a4,a5
    80000ca4:	800007b7          	lui	a5,0x80000
    80000ca8:	8ff9                	and	a5,a5,a4
    80000caa:	2781                	sext.w	a5,a5
    80000cac:	c399                	beqz	a5,80000cb2 <drv_uart_getc+0x42>
    80000cae:	57fd                	li	a5,-1
    80000cb0:	a031                	j	80000cbc <drv_uart_getc+0x4c>
    80000cb2:	fe044783          	lbu	a5,-32(s0)
    80000cb6:	2781                	sext.w	a5,a5
    80000cb8:	a011                	j	80000cbc <drv_uart_getc+0x4c>
    80000cba:	57fd                	li	a5,-1
    80000cbc:	853e                	mv	a0,a5
    80000cbe:	7422                	ld	s0,40(sp)
    80000cc0:	6145                	addi	sp,sp,48
    80000cc2:	8082                	ret

0000000080000cc4 <uart_irq_handler>:
    80000cc4:	7179                	addi	sp,sp,-48
    80000cc6:	f406                	sd	ra,40(sp)
    80000cc8:	f022                	sd	s0,32(sp)
    80000cca:	1800                	addi	s0,sp,48
    80000ccc:	87aa                	mv	a5,a0
    80000cce:	fcb43823          	sd	a1,-48(s0)
    80000cd2:	fcf42e23          	sw	a5,-36(s0)
    80000cd6:	fd043783          	ld	a5,-48(s0)
    80000cda:	fef43423          	sd	a5,-24(s0)
    80000cde:	fe843783          	ld	a5,-24(s0)
    80000ce2:	6bdc                	ld	a5,144(a5)
    80000ce4:	fef43023          	sd	a5,-32(s0)
    80000ce8:	fe043783          	ld	a5,-32(s0)
    80000cec:	439c                	lw	a5,0(a5)
    80000cee:	873e                	mv	a4,a5
    80000cf0:	380007b7          	lui	a5,0x38000
    80000cf4:	02f71063          	bne	a4,a5,80000d14 <uart_irq_handler+0x50>
    80000cf8:	380007b7          	lui	a5,0x38000
    80000cfc:	4bdc                	lw	a5,20(a5)
    80000cfe:	0017d79b          	srliw	a5,a5,0x1
    80000d02:	8b85                	andi	a5,a5,1
    80000d04:	0ff7f793          	andi	a5,a5,255
    80000d08:	c791                	beqz	a5,80000d14 <uart_irq_handler+0x50>
    80000d0a:	4585                	li	a1,1
    80000d0c:	fe843503          	ld	a0,-24(s0)
    80000d10:	0d30c0ef          	jal	ra,8000d5e2 <rt_hw_serial_isr>
    80000d14:	0001                	nop
    80000d16:	70a2                	ld	ra,40(sp)
    80000d18:	7402                	ld	s0,32(sp)
    80000d1a:	6145                	addi	sp,sp,48
    80000d1c:	8082                	ret

0000000080000d1e <uart_debug_init>:
    80000d1e:	1101                	addi	sp,sp,-32
    80000d20:	ec22                	sd	s0,24(sp)
    80000d22:	1000                	addi	s0,sp,32
    80000d24:	87aa                	mv	a5,a0
    80000d26:	fef42623          	sw	a5,-20(s0)
    80000d2a:	0001                	nop
    80000d2c:	6462                	ld	s0,24(sp)
    80000d2e:	6105                	addi	sp,sp,32
    80000d30:	8082                	ret

0000000080000d32 <print_io_config>:
    80000d32:	1101                	addi	sp,sp,-32
    80000d34:	ec06                	sd	ra,24(sp)
    80000d36:	e822                	sd	s0,16(sp)
    80000d38:	1000                	addi	s0,sp,32
    80000d3a:	00021517          	auipc	a0,0x21
    80000d3e:	a0650513          	addi	a0,a0,-1530 # 80021740 <__clzdi2+0x29a>
    80000d42:	437030ef          	jal	ra,80004978 <rt_kprintf>
    80000d46:	00021517          	auipc	a0,0x21
    80000d4a:	a1250513          	addi	a0,a0,-1518 # 80021758 <__clzdi2+0x2b2>
    80000d4e:	42b030ef          	jal	ra,80004978 <rt_kprintf>
    80000d52:	00021517          	auipc	a0,0x21
    80000d56:	a6e50513          	addi	a0,a0,-1426 # 800217c0 <__clzdi2+0x31a>
    80000d5a:	41f030ef          	jal	ra,80004978 <rt_kprintf>
    80000d5e:	00021517          	auipc	a0,0x21
    80000d62:	a9250513          	addi	a0,a0,-1390 # 800217f0 <__clzdi2+0x34a>
    80000d66:	413030ef          	jal	ra,80004978 <rt_kprintf>
    80000d6a:	fe042623          	sw	zero,-20(s0)
    80000d6e:	0001                	nop
    80000d70:	00021517          	auipc	a0,0x21
    80000d74:	ae850513          	addi	a0,a0,-1304 # 80021858 <__clzdi2+0x3b2>
    80000d78:	401030ef          	jal	ra,80004978 <rt_kprintf>
    80000d7c:	4781                	li	a5,0
    80000d7e:	853e                	mv	a0,a5
    80000d80:	60e2                	ld	ra,24(sp)
    80000d82:	6442                	ld	s0,16(sp)
    80000d84:	6105                	addi	sp,sp,32
    80000d86:	8082                	ret

0000000080000d88 <io_config_init>:
    80000d88:	1101                	addi	sp,sp,-32
    80000d8a:	ec06                	sd	ra,24(sp)
    80000d8c:	e822                	sd	s0,16(sp)
    80000d8e:	1000                	addi	s0,sp,32
    80000d90:	fe042423          	sw	zero,-24(s0)
    80000d94:	4585                	li	a1,1
    80000d96:	4501                	li	a0,0
    80000d98:	3b0160ef          	jal	ra,80017148 <sysctl_set_power_mode>
    80000d9c:	4585                	li	a1,1
    80000d9e:	4505                	li	a0,1
    80000da0:	3a8160ef          	jal	ra,80017148 <sysctl_set_power_mode>
    80000da4:	4585                	li	a1,1
    80000da6:	4509                	li	a0,2
    80000da8:	3a0160ef          	jal	ra,80017148 <sysctl_set_power_mode>
    80000dac:	fe042623          	sw	zero,-20(s0)
    80000db0:	a825                	j	80000de8 <io_config_init+0x60>
    80000db2:	0002a717          	auipc	a4,0x2a
    80000db6:	64670713          	addi	a4,a4,1606 # 8002b3f8 <pin_alloc_table>
    80000dba:	fec42783          	lw	a5,-20(s0)
    80000dbe:	0792                	slli	a5,a5,0x4
    80000dc0:	97ba                	add	a5,a5,a4
    80000dc2:	4394                	lw	a3,0(a5)
    80000dc4:	0002a717          	auipc	a4,0x2a
    80000dc8:	63470713          	addi	a4,a4,1588 # 8002b3f8 <pin_alloc_table>
    80000dcc:	fec42783          	lw	a5,-20(s0)
    80000dd0:	0792                	slli	a5,a5,0x4
    80000dd2:	97ba                	add	a5,a5,a4
    80000dd4:	43dc                	lw	a5,4(a5)
    80000dd6:	85be                	mv	a1,a5
    80000dd8:	8536                	mv	a0,a3
    80000dda:	233120ef          	jal	ra,8001380c <fpioa_set_function>
    80000dde:	fec42783          	lw	a5,-20(s0)
    80000de2:	2785                	addiw	a5,a5,1
    80000de4:	fef42623          	sw	a5,-20(s0)
    80000de8:	fec42703          	lw	a4,-20(s0)
    80000dec:	fe842783          	lw	a5,-24(s0)
    80000df0:	2701                	sext.w	a4,a4
    80000df2:	2781                	sext.w	a5,a5
    80000df4:	faf74fe3          	blt	a4,a5,80000db2 <io_config_init+0x2a>
    80000df8:	0001                	nop
    80000dfa:	853e                	mv	a0,a5
    80000dfc:	60e2                	ld	ra,24(sp)
    80000dfe:	6442                	ld	s0,16(sp)
    80000e00:	6105                	addi	sp,sp,32
    80000e02:	8082                	ret

0000000080000e04 <plic_irq_handle>:
    80000e04:	7179                	addi	sp,sp,-48
    80000e06:	f406                	sd	ra,40(sp)
    80000e08:	f022                	sd	s0,32(sp)
    80000e0a:	1800                	addi	s0,sp,48
    80000e0c:	87aa                	mv	a5,a0
    80000e0e:	fcf42e23          	sw	a5,-36(s0)
    80000e12:	1b6130ef          	jal	ra,80013fc8 <plic_get_instance>
    80000e16:	fea43423          	sd	a0,-24(s0)
    80000e1a:	fe843703          	ld	a4,-24(s0)
    80000e1e:	fdc46783          	lwu	a5,-36(s0)
    80000e22:	0792                	slli	a5,a5,0x4
    80000e24:	97ba                	add	a5,a5,a4
    80000e26:	639c                	ld	a5,0(a5)
    80000e28:	c395                	beqz	a5,80000e4c <plic_irq_handle+0x48>
    80000e2a:	fe843703          	ld	a4,-24(s0)
    80000e2e:	fdc46783          	lwu	a5,-36(s0)
    80000e32:	0792                	slli	a5,a5,0x4
    80000e34:	97ba                	add	a5,a5,a4
    80000e36:	6394                	ld	a3,0(a5)
    80000e38:	fe843703          	ld	a4,-24(s0)
    80000e3c:	fdc46783          	lwu	a5,-36(s0)
    80000e40:	0792                	slli	a5,a5,0x4
    80000e42:	97ba                	add	a5,a5,a4
    80000e44:	679c                	ld	a5,8(a5)
    80000e46:	853e                	mv	a0,a5
    80000e48:	9682                	jalr	a3
    80000e4a:	a83d                	j	80000e88 <plic_irq_handle+0x84>
    80000e4c:	fe843783          	ld	a5,-24(s0)
    80000e50:	42078713          	addi	a4,a5,1056 # 38000420 <__STACKSIZE__+0x37fff420>
    80000e54:	fdc46783          	lwu	a5,-36(s0)
    80000e58:	0792                	slli	a5,a5,0x4
    80000e5a:	97ba                	add	a5,a5,a4
    80000e5c:	639c                	ld	a5,0(a5)
    80000e5e:	c78d                	beqz	a5,80000e88 <plic_irq_handle+0x84>
    80000e60:	fe843783          	ld	a5,-24(s0)
    80000e64:	42078713          	addi	a4,a5,1056
    80000e68:	fdc46783          	lwu	a5,-36(s0)
    80000e6c:	0792                	slli	a5,a5,0x4
    80000e6e:	97ba                	add	a5,a5,a4
    80000e70:	6394                	ld	a3,0(a5)
    80000e72:	fe843783          	ld	a5,-24(s0)
    80000e76:	42078713          	addi	a4,a5,1056
    80000e7a:	fdc46783          	lwu	a5,-36(s0)
    80000e7e:	0792                	slli	a5,a5,0x4
    80000e80:	97ba                	add	a5,a5,a4
    80000e82:	679c                	ld	a5,8(a5)
    80000e84:	853e                	mv	a0,a5
    80000e86:	9682                	jalr	a3
    80000e88:	0001                	nop
    80000e8a:	70a2                	ld	ra,40(sp)
    80000e8c:	7402                	ld	s0,32(sp)
    80000e8e:	6145                	addi	sp,sp,48
    80000e90:	8082                	ret

0000000080000e92 <alloc_pin_channel>:
    80000e92:	1101                	addi	sp,sp,-32
    80000e94:	ec06                	sd	ra,24(sp)
    80000e96:	e822                	sd	s0,16(sp)
    80000e98:	1000                	addi	s0,sp,32
    80000e9a:	fea43423          	sd	a0,-24(s0)
    80000e9e:	0002a797          	auipc	a5,0x2a
    80000ea2:	32a78793          	addi	a5,a5,810 # 8002b1c8 <free_pin>
    80000ea6:	439c                	lw	a5,0(a5)
    80000ea8:	873e                	mv	a4,a5
    80000eaa:	47fd                	li	a5,31
    80000eac:	02f71063          	bne	a4,a5,80000ecc <alloc_pin_channel+0x3a>
    80000eb0:	00021697          	auipc	a3,0x21
    80000eb4:	a1068693          	addi	a3,a3,-1520 # 800218c0 <__clzdi2+0x41a>
    80000eb8:	4605                	li	a2,1
    80000eba:	00021597          	auipc	a1,0x21
    80000ebe:	a2658593          	addi	a1,a1,-1498 # 800218e0 <__clzdi2+0x43a>
    80000ec2:	450d                	li	a0,3
    80000ec4:	692110ef          	jal	ra,80012556 <ulog_output>
    80000ec8:	57fd                	li	a5,-1
    80000eca:	a0c1                	j	80000f8a <alloc_pin_channel+0xf8>
    80000ecc:	0002a717          	auipc	a4,0x2a
    80000ed0:	52c70713          	addi	a4,a4,1324 # 8002b3f8 <pin_alloc_table>
    80000ed4:	fe843783          	ld	a5,-24(s0)
    80000ed8:	078a                	slli	a5,a5,0x2
    80000eda:	97ba                	add	a5,a5,a4
    80000edc:	439c                	lw	a5,0(a5)
    80000ede:	873e                	mv	a4,a5
    80000ee0:	57fd                	li	a5,-1
    80000ee2:	02f70a63          	beq	a4,a5,80000f16 <alloc_pin_channel+0x84>
    80000ee6:	fe843703          	ld	a4,-24(s0)
    80000eea:	00021697          	auipc	a3,0x21
    80000eee:	9fe68693          	addi	a3,a3,-1538 # 800218e8 <__clzdi2+0x442>
    80000ef2:	4605                	li	a2,1
    80000ef4:	00021597          	auipc	a1,0x21
    80000ef8:	9ec58593          	addi	a1,a1,-1556 # 800218e0 <__clzdi2+0x43a>
    80000efc:	4511                	li	a0,4
    80000efe:	658110ef          	jal	ra,80012556 <ulog_output>
    80000f02:	0002a717          	auipc	a4,0x2a
    80000f06:	4f670713          	addi	a4,a4,1270 # 8002b3f8 <pin_alloc_table>
    80000f0a:	fe843783          	ld	a5,-24(s0)
    80000f0e:	078a                	slli	a5,a5,0x2
    80000f10:	97ba                	add	a5,a5,a4
    80000f12:	439c                	lw	a5,0(a5)
    80000f14:	a89d                	j	80000f8a <alloc_pin_channel+0xf8>
    80000f16:	0002a797          	auipc	a5,0x2a
    80000f1a:	2b278793          	addi	a5,a5,690 # 8002b1c8 <free_pin>
    80000f1e:	439c                	lw	a5,0(a5)
    80000f20:	0007871b          	sext.w	a4,a5
    80000f24:	0002a697          	auipc	a3,0x2a
    80000f28:	4d468693          	addi	a3,a3,1236 # 8002b3f8 <pin_alloc_table>
    80000f2c:	fe843783          	ld	a5,-24(s0)
    80000f30:	078a                	slli	a5,a5,0x2
    80000f32:	97b6                	add	a5,a5,a3
    80000f34:	c398                	sw	a4,0(a5)
    80000f36:	0002a797          	auipc	a5,0x2a
    80000f3a:	29278793          	addi	a5,a5,658 # 8002b1c8 <free_pin>
    80000f3e:	439c                	lw	a5,0(a5)
    80000f40:	2785                	addiw	a5,a5,1
    80000f42:	0007871b          	sext.w	a4,a5
    80000f46:	0002a797          	auipc	a5,0x2a
    80000f4a:	28278793          	addi	a5,a5,642 # 8002b1c8 <free_pin>
    80000f4e:	c398                	sw	a4,0(a5)
    80000f50:	fe843783          	ld	a5,-24(s0)
    80000f54:	0007869b          	sext.w	a3,a5
    80000f58:	0002a717          	auipc	a4,0x2a
    80000f5c:	4a070713          	addi	a4,a4,1184 # 8002b3f8 <pin_alloc_table>
    80000f60:	fe843783          	ld	a5,-24(s0)
    80000f64:	078a                	slli	a5,a5,0x2
    80000f66:	97ba                	add	a5,a5,a4
    80000f68:	439c                	lw	a5,0(a5)
    80000f6a:	27e1                	addiw	a5,a5,24
    80000f6c:	2781                	sext.w	a5,a5
    80000f6e:	2781                	sext.w	a5,a5
    80000f70:	85be                	mv	a1,a5
    80000f72:	8536                	mv	a0,a3
    80000f74:	099120ef          	jal	ra,8001380c <fpioa_set_function>
    80000f78:	0002a717          	auipc	a4,0x2a
    80000f7c:	48070713          	addi	a4,a4,1152 # 8002b3f8 <pin_alloc_table>
    80000f80:	fe843783          	ld	a5,-24(s0)
    80000f84:	078a                	slli	a5,a5,0x2
    80000f86:	97ba                	add	a5,a5,a4
    80000f88:	439c                	lw	a5,0(a5)
    80000f8a:	853e                	mv	a0,a5
    80000f8c:	60e2                	ld	ra,24(sp)
    80000f8e:	6442                	ld	s0,16(sp)
    80000f90:	6105                	addi	sp,sp,32
    80000f92:	8082                	ret

0000000080000f94 <get_pin_channel>:
    80000f94:	1101                	addi	sp,sp,-32
    80000f96:	ec22                	sd	s0,24(sp)
    80000f98:	1000                	addi	s0,sp,32
    80000f9a:	fea43423          	sd	a0,-24(s0)
    80000f9e:	0002a717          	auipc	a4,0x2a
    80000fa2:	45a70713          	addi	a4,a4,1114 # 8002b3f8 <pin_alloc_table>
    80000fa6:	fe843783          	ld	a5,-24(s0)
    80000faa:	078a                	slli	a5,a5,0x2
    80000fac:	97ba                	add	a5,a5,a4
    80000fae:	439c                	lw	a5,0(a5)
    80000fb0:	853e                	mv	a0,a5
    80000fb2:	6462                	ld	s0,24(sp)
    80000fb4:	6105                	addi	sp,sp,32
    80000fb6:	8082                	ret

0000000080000fb8 <drv_pin_mode>:
    80000fb8:	7139                	addi	sp,sp,-64
    80000fba:	fc06                	sd	ra,56(sp)
    80000fbc:	f822                	sd	s0,48(sp)
    80000fbe:	0080                	addi	s0,sp,64
    80000fc0:	fca43c23          	sd	a0,-40(s0)
    80000fc4:	fcb43823          	sd	a1,-48(s0)
    80000fc8:	fcc43423          	sd	a2,-56(s0)
    80000fcc:	fd043503          	ld	a0,-48(s0)
    80000fd0:	fc5ff0ef          	jal	ra,80000f94 <get_pin_channel>
    80000fd4:	87aa                	mv	a5,a0
    80000fd6:	fef42623          	sw	a5,-20(s0)
    80000fda:	fec42783          	lw	a5,-20(s0)
    80000fde:	0007871b          	sext.w	a4,a5
    80000fe2:	57fd                	li	a5,-1
    80000fe4:	02f71063          	bne	a4,a5,80001004 <drv_pin_mode+0x4c>
    80000fe8:	fd043503          	ld	a0,-48(s0)
    80000fec:	ea7ff0ef          	jal	ra,80000e92 <alloc_pin_channel>
    80000ff0:	87aa                	mv	a5,a0
    80000ff2:	fef42623          	sw	a5,-20(s0)
    80000ff6:	fec42783          	lw	a5,-20(s0)
    80000ffa:	0007871b          	sext.w	a4,a5
    80000ffe:	57fd                	li	a5,-1
    80001000:	08f70f63          	beq	a4,a5,8000109e <drv_pin_mode+0xe6>
    80001004:	fc843703          	ld	a4,-56(s0)
    80001008:	4785                	li	a5,1
    8000100a:	02f70f63          	beq	a4,a5,80001048 <drv_pin_mode+0x90>
    8000100e:	fc843703          	ld	a4,-56(s0)
    80001012:	4785                	li	a5,1
    80001014:	00e7c663          	blt	a5,a4,80001020 <drv_pin_mode+0x68>
    80001018:	fc843783          	ld	a5,-56(s0)
    8000101c:	cf89                	beqz	a5,80001036 <drv_pin_mode+0x7e>
    8000101e:	a085                	j	8000107e <drv_pin_mode+0xc6>
    80001020:	fc843703          	ld	a4,-56(s0)
    80001024:	4789                	li	a5,2
    80001026:	02f70a63          	beq	a4,a5,8000105a <drv_pin_mode+0xa2>
    8000102a:	fc843703          	ld	a4,-56(s0)
    8000102e:	478d                	li	a5,3
    80001030:	02f70e63          	beq	a4,a5,8000106c <drv_pin_mode+0xb4>
    80001034:	a0a9                	j	8000107e <drv_pin_mode+0xc6>
    80001036:	fec42783          	lw	a5,-20(s0)
    8000103a:	0ff7f793          	andi	a5,a5,255
    8000103e:	458d                	li	a1,3
    80001040:	853e                	mv	a0,a5
    80001042:	337120ef          	jal	ra,80013b78 <gpiohs_set_drive_mode>
    80001046:	a8a9                	j	800010a0 <drv_pin_mode+0xe8>
    80001048:	fec42783          	lw	a5,-20(s0)
    8000104c:	0ff7f793          	andi	a5,a5,255
    80001050:	4581                	li	a1,0
    80001052:	853e                	mv	a0,a5
    80001054:	325120ef          	jal	ra,80013b78 <gpiohs_set_drive_mode>
    80001058:	a0a1                	j	800010a0 <drv_pin_mode+0xe8>
    8000105a:	fec42783          	lw	a5,-20(s0)
    8000105e:	0ff7f793          	andi	a5,a5,255
    80001062:	4589                	li	a1,2
    80001064:	853e                	mv	a0,a5
    80001066:	313120ef          	jal	ra,80013b78 <gpiohs_set_drive_mode>
    8000106a:	a81d                	j	800010a0 <drv_pin_mode+0xe8>
    8000106c:	fec42783          	lw	a5,-20(s0)
    80001070:	0ff7f793          	andi	a5,a5,255
    80001074:	4585                	li	a1,1
    80001076:	853e                	mv	a0,a5
    80001078:	301120ef          	jal	ra,80013b78 <gpiohs_set_drive_mode>
    8000107c:	a015                	j	800010a0 <drv_pin_mode+0xe8>
    8000107e:	fc843703          	ld	a4,-56(s0)
    80001082:	00021697          	auipc	a3,0x21
    80001086:	8be68693          	addi	a3,a3,-1858 # 80021940 <__clzdi2+0x49a>
    8000108a:	4605                	li	a2,1
    8000108c:	00021597          	auipc	a1,0x21
    80001090:	85458593          	addi	a1,a1,-1964 # 800218e0 <__clzdi2+0x43a>
    80001094:	450d                	li	a0,3
    80001096:	4c0110ef          	jal	ra,80012556 <ulog_output>
    8000109a:	0001                	nop
    8000109c:	a011                	j	800010a0 <drv_pin_mode+0xe8>
    8000109e:	0001                	nop
    800010a0:	70e2                	ld	ra,56(sp)
    800010a2:	7442                	ld	s0,48(sp)
    800010a4:	6121                	addi	sp,sp,64
    800010a6:	8082                	ret

00000000800010a8 <drv_pin_write>:
    800010a8:	7139                	addi	sp,sp,-64
    800010aa:	fc06                	sd	ra,56(sp)
    800010ac:	f822                	sd	s0,48(sp)
    800010ae:	0080                	addi	s0,sp,64
    800010b0:	fca43c23          	sd	a0,-40(s0)
    800010b4:	fcb43823          	sd	a1,-48(s0)
    800010b8:	fcc43423          	sd	a2,-56(s0)
    800010bc:	fd043503          	ld	a0,-48(s0)
    800010c0:	ed5ff0ef          	jal	ra,80000f94 <get_pin_channel>
    800010c4:	87aa                	mv	a5,a0
    800010c6:	fef42623          	sw	a5,-20(s0)
    800010ca:	fec42783          	lw	a5,-20(s0)
    800010ce:	0007871b          	sext.w	a4,a5
    800010d2:	57fd                	li	a5,-1
    800010d4:	02f71163          	bne	a4,a5,800010f6 <drv_pin_write+0x4e>
    800010d8:	fd043703          	ld	a4,-48(s0)
    800010dc:	00021697          	auipc	a3,0x21
    800010e0:	87c68693          	addi	a3,a3,-1924 # 80021958 <__clzdi2+0x4b2>
    800010e4:	4605                	li	a2,1
    800010e6:	00020597          	auipc	a1,0x20
    800010ea:	7fa58593          	addi	a1,a1,2042 # 800218e0 <__clzdi2+0x43a>
    800010ee:	450d                	li	a0,3
    800010f0:	466110ef          	jal	ra,80012556 <ulog_output>
    800010f4:	a00d                	j	80001116 <drv_pin_write+0x6e>
    800010f6:	fec42783          	lw	a5,-20(s0)
    800010fa:	0ff7f713          	andi	a4,a5,255
    800010fe:	fc843783          	ld	a5,-56(s0)
    80001102:	17fd                	addi	a5,a5,-1
    80001104:	0017b793          	seqz	a5,a5
    80001108:	0ff7f793          	andi	a5,a5,255
    8000110c:	2781                	sext.w	a5,a5
    8000110e:	85be                	mv	a1,a5
    80001110:	853a                	mv	a0,a4
    80001112:	443120ef          	jal	ra,80013d54 <gpiohs_set_pin>
    80001116:	70e2                	ld	ra,56(sp)
    80001118:	7442                	ld	s0,48(sp)
    8000111a:	6121                	addi	sp,sp,64
    8000111c:	8082                	ret

000000008000111e <drv_pin_read>:
    8000111e:	7179                	addi	sp,sp,-48
    80001120:	f406                	sd	ra,40(sp)
    80001122:	f022                	sd	s0,32(sp)
    80001124:	1800                	addi	s0,sp,48
    80001126:	fca43c23          	sd	a0,-40(s0)
    8000112a:	fcb43823          	sd	a1,-48(s0)
    8000112e:	fd043503          	ld	a0,-48(s0)
    80001132:	e63ff0ef          	jal	ra,80000f94 <get_pin_channel>
    80001136:	87aa                	mv	a5,a0
    80001138:	fef42623          	sw	a5,-20(s0)
    8000113c:	fec42783          	lw	a5,-20(s0)
    80001140:	0007871b          	sext.w	a4,a5
    80001144:	57fd                	li	a5,-1
    80001146:	02f71263          	bne	a4,a5,8000116a <drv_pin_read+0x4c>
    8000114a:	fd043703          	ld	a4,-48(s0)
    8000114e:	00021697          	auipc	a3,0x21
    80001152:	80a68693          	addi	a3,a3,-2038 # 80021958 <__clzdi2+0x4b2>
    80001156:	4605                	li	a2,1
    80001158:	00020597          	auipc	a1,0x20
    8000115c:	78858593          	addi	a1,a1,1928 # 800218e0 <__clzdi2+0x43a>
    80001160:	450d                	li	a0,3
    80001162:	3f4110ef          	jal	ra,80012556 <ulog_output>
    80001166:	57fd                	li	a5,-1
    80001168:	a01d                	j	8000118e <drv_pin_read+0x70>
    8000116a:	fec42783          	lw	a5,-20(s0)
    8000116e:	0ff7f793          	andi	a5,a5,255
    80001172:	853e                	mv	a0,a5
    80001174:	383120ef          	jal	ra,80013cf6 <gpiohs_get_pin>
    80001178:	87aa                	mv	a5,a0
    8000117a:	2781                	sext.w	a5,a5
    8000117c:	873e                	mv	a4,a5
    8000117e:	4785                	li	a5,1
    80001180:	40f707b3          	sub	a5,a4,a5
    80001184:	0017b793          	seqz	a5,a5
    80001188:	0ff7f793          	andi	a5,a5,255
    8000118c:	2781                	sext.w	a5,a5
    8000118e:	853e                	mv	a0,a5
    80001190:	70a2                	ld	ra,40(sp)
    80001192:	7402                	ld	s0,32(sp)
    80001194:	6145                	addi	sp,sp,48
    80001196:	8082                	ret

0000000080001198 <pin_irq>:
    80001198:	7179                	addi	sp,sp,-48
    8000119a:	f406                	sd	ra,40(sp)
    8000119c:	f022                	sd	s0,32(sp)
    8000119e:	1800                	addi	s0,sp,48
    800011a0:	87aa                	mv	a5,a0
    800011a2:	fcb43823          	sd	a1,-48(s0)
    800011a6:	fcf42e23          	sw	a5,-36(s0)
    800011aa:	fdc42783          	lw	a5,-36(s0)
    800011ae:	fde7879b          	addiw	a5,a5,-34
    800011b2:	fef42623          	sw	a5,-20(s0)
    800011b6:	0002a697          	auipc	a3,0x2a
    800011ba:	30268693          	addi	a3,a3,770 # 8002b4b8 <irq_table>
    800011be:	fec42703          	lw	a4,-20(s0)
    800011c2:	87ba                	mv	a5,a4
    800011c4:	0786                	slli	a5,a5,0x1
    800011c6:	97ba                	add	a5,a5,a4
    800011c8:	078e                	slli	a5,a5,0x3
    800011ca:	97b6                	add	a5,a5,a3
    800011cc:	4b9c                	lw	a5,16(a5)
    800011ce:	8b85                	andi	a5,a5,1
    800011d0:	2781                	sext.w	a5,a5
    800011d2:	cbb9                	beqz	a5,80001228 <pin_irq+0x90>
    800011d4:	00027797          	auipc	a5,0x27
    800011d8:	55c78793          	addi	a5,a5,1372 # 80028730 <gpiohs>
    800011dc:	639c                	ld	a5,0(a5)
    800011de:	02078793          	addi	a5,a5,32
    800011e2:	fec42703          	lw	a4,-20(s0)
    800011e6:	4601                	li	a2,0
    800011e8:	85ba                	mv	a1,a4
    800011ea:	853e                	mv	a0,a5
    800011ec:	212160ef          	jal	ra,800173fe <set_gpio_bit>
    800011f0:	00027797          	auipc	a5,0x27
    800011f4:	54078793          	addi	a5,a5,1344 # 80028730 <gpiohs>
    800011f8:	639c                	ld	a5,0(a5)
    800011fa:	02478793          	addi	a5,a5,36
    800011fe:	fec42703          	lw	a4,-20(s0)
    80001202:	4605                	li	a2,1
    80001204:	85ba                	mv	a1,a4
    80001206:	853e                	mv	a0,a5
    80001208:	1f6160ef          	jal	ra,800173fe <set_gpio_bit>
    8000120c:	00027797          	auipc	a5,0x27
    80001210:	52478793          	addi	a5,a5,1316 # 80028730 <gpiohs>
    80001214:	639c                	ld	a5,0(a5)
    80001216:	02078793          	addi	a5,a5,32
    8000121a:	fec42703          	lw	a4,-20(s0)
    8000121e:	4605                	li	a2,1
    80001220:	85ba                	mv	a1,a4
    80001222:	853e                	mv	a0,a5
    80001224:	1da160ef          	jal	ra,800173fe <set_gpio_bit>
    80001228:	0002a697          	auipc	a3,0x2a
    8000122c:	29068693          	addi	a3,a3,656 # 8002b4b8 <irq_table>
    80001230:	fec42703          	lw	a4,-20(s0)
    80001234:	87ba                	mv	a5,a4
    80001236:	0786                	slli	a5,a5,0x1
    80001238:	97ba                	add	a5,a5,a4
    8000123a:	078e                	slli	a5,a5,0x3
    8000123c:	97b6                	add	a5,a5,a3
    8000123e:	4b9c                	lw	a5,16(a5)
    80001240:	8b89                	andi	a5,a5,2
    80001242:	2781                	sext.w	a5,a5
    80001244:	cba1                	beqz	a5,80001294 <pin_irq+0xfc>
    80001246:	00027797          	auipc	a5,0x27
    8000124a:	4ea78793          	addi	a5,a5,1258 # 80028730 <gpiohs>
    8000124e:	639c                	ld	a5,0(a5)
    80001250:	07e1                	addi	a5,a5,24
    80001252:	fec42703          	lw	a4,-20(s0)
    80001256:	4601                	li	a2,0
    80001258:	85ba                	mv	a1,a4
    8000125a:	853e                	mv	a0,a5
    8000125c:	1a2160ef          	jal	ra,800173fe <set_gpio_bit>
    80001260:	00027797          	auipc	a5,0x27
    80001264:	4d078793          	addi	a5,a5,1232 # 80028730 <gpiohs>
    80001268:	639c                	ld	a5,0(a5)
    8000126a:	07f1                	addi	a5,a5,28
    8000126c:	fec42703          	lw	a4,-20(s0)
    80001270:	4605                	li	a2,1
    80001272:	85ba                	mv	a1,a4
    80001274:	853e                	mv	a0,a5
    80001276:	188160ef          	jal	ra,800173fe <set_gpio_bit>
    8000127a:	00027797          	auipc	a5,0x27
    8000127e:	4b678793          	addi	a5,a5,1206 # 80028730 <gpiohs>
    80001282:	639c                	ld	a5,0(a5)
    80001284:	07e1                	addi	a5,a5,24
    80001286:	fec42703          	lw	a4,-20(s0)
    8000128a:	4605                	li	a2,1
    8000128c:	85ba                	mv	a1,a4
    8000128e:	853e                	mv	a0,a5
    80001290:	16e160ef          	jal	ra,800173fe <set_gpio_bit>
    80001294:	0002a697          	auipc	a3,0x2a
    80001298:	22468693          	addi	a3,a3,548 # 8002b4b8 <irq_table>
    8000129c:	fec42703          	lw	a4,-20(s0)
    800012a0:	87ba                	mv	a5,a4
    800012a2:	0786                	slli	a5,a5,0x1
    800012a4:	97ba                	add	a5,a5,a4
    800012a6:	078e                	slli	a5,a5,0x3
    800012a8:	97b6                	add	a5,a5,a3
    800012aa:	4b9c                	lw	a5,16(a5)
    800012ac:	8b91                	andi	a5,a5,4
    800012ae:	2781                	sext.w	a5,a5
    800012b0:	cbb9                	beqz	a5,80001306 <pin_irq+0x16e>
    800012b2:	00027797          	auipc	a5,0x27
    800012b6:	47e78793          	addi	a5,a5,1150 # 80028730 <gpiohs>
    800012ba:	639c                	ld	a5,0(a5)
    800012bc:	03078793          	addi	a5,a5,48
    800012c0:	fec42703          	lw	a4,-20(s0)
    800012c4:	4601                	li	a2,0
    800012c6:	85ba                	mv	a1,a4
    800012c8:	853e                	mv	a0,a5
    800012ca:	134160ef          	jal	ra,800173fe <set_gpio_bit>
    800012ce:	00027797          	auipc	a5,0x27
    800012d2:	46278793          	addi	a5,a5,1122 # 80028730 <gpiohs>
    800012d6:	639c                	ld	a5,0(a5)
    800012d8:	03478793          	addi	a5,a5,52
    800012dc:	fec42703          	lw	a4,-20(s0)
    800012e0:	4605                	li	a2,1
    800012e2:	85ba                	mv	a1,a4
    800012e4:	853e                	mv	a0,a5
    800012e6:	118160ef          	jal	ra,800173fe <set_gpio_bit>
    800012ea:	00027797          	auipc	a5,0x27
    800012ee:	44678793          	addi	a5,a5,1094 # 80028730 <gpiohs>
    800012f2:	639c                	ld	a5,0(a5)
    800012f4:	03078793          	addi	a5,a5,48
    800012f8:	fec42703          	lw	a4,-20(s0)
    800012fc:	4605                	li	a2,1
    800012fe:	85ba                	mv	a1,a4
    80001300:	853e                	mv	a0,a5
    80001302:	0fc160ef          	jal	ra,800173fe <set_gpio_bit>
    80001306:	0002a697          	auipc	a3,0x2a
    8000130a:	1b268693          	addi	a3,a3,434 # 8002b4b8 <irq_table>
    8000130e:	fec42703          	lw	a4,-20(s0)
    80001312:	87ba                	mv	a5,a4
    80001314:	0786                	slli	a5,a5,0x1
    80001316:	97ba                	add	a5,a5,a4
    80001318:	078e                	slli	a5,a5,0x3
    8000131a:	97b6                	add	a5,a5,a3
    8000131c:	4b9c                	lw	a5,16(a5)
    8000131e:	8ba1                	andi	a5,a5,8
    80001320:	2781                	sext.w	a5,a5
    80001322:	cbb9                	beqz	a5,80001378 <pin_irq+0x1e0>
    80001324:	00027797          	auipc	a5,0x27
    80001328:	40c78793          	addi	a5,a5,1036 # 80028730 <gpiohs>
    8000132c:	639c                	ld	a5,0(a5)
    8000132e:	02878793          	addi	a5,a5,40
    80001332:	fec42703          	lw	a4,-20(s0)
    80001336:	4601                	li	a2,0
    80001338:	85ba                	mv	a1,a4
    8000133a:	853e                	mv	a0,a5
    8000133c:	0c2160ef          	jal	ra,800173fe <set_gpio_bit>
    80001340:	00027797          	auipc	a5,0x27
    80001344:	3f078793          	addi	a5,a5,1008 # 80028730 <gpiohs>
    80001348:	639c                	ld	a5,0(a5)
    8000134a:	02c78793          	addi	a5,a5,44
    8000134e:	fec42703          	lw	a4,-20(s0)
    80001352:	4605                	li	a2,1
    80001354:	85ba                	mv	a1,a4
    80001356:	853e                	mv	a0,a5
    80001358:	0a6160ef          	jal	ra,800173fe <set_gpio_bit>
    8000135c:	00027797          	auipc	a5,0x27
    80001360:	3d478793          	addi	a5,a5,980 # 80028730 <gpiohs>
    80001364:	639c                	ld	a5,0(a5)
    80001366:	02878793          	addi	a5,a5,40
    8000136a:	fec42703          	lw	a4,-20(s0)
    8000136e:	4605                	li	a2,1
    80001370:	85ba                	mv	a1,a4
    80001372:	853e                	mv	a0,a5
    80001374:	08a160ef          	jal	ra,800173fe <set_gpio_bit>
    80001378:	0002a697          	auipc	a3,0x2a
    8000137c:	14068693          	addi	a3,a3,320 # 8002b4b8 <irq_table>
    80001380:	fec42703          	lw	a4,-20(s0)
    80001384:	87ba                	mv	a5,a4
    80001386:	0786                	slli	a5,a5,0x1
    80001388:	97ba                	add	a5,a5,a4
    8000138a:	078e                	slli	a5,a5,0x3
    8000138c:	97b6                	add	a5,a5,a3
    8000138e:	639c                	ld	a5,0(a5)
    80001390:	cb9d                	beqz	a5,800013c6 <pin_irq+0x22e>
    80001392:	0002a697          	auipc	a3,0x2a
    80001396:	12668693          	addi	a3,a3,294 # 8002b4b8 <irq_table>
    8000139a:	fec42703          	lw	a4,-20(s0)
    8000139e:	87ba                	mv	a5,a4
    800013a0:	0786                	slli	a5,a5,0x1
    800013a2:	97ba                	add	a5,a5,a4
    800013a4:	078e                	slli	a5,a5,0x3
    800013a6:	97b6                	add	a5,a5,a3
    800013a8:	6390                	ld	a2,0(a5)
    800013aa:	0002a697          	auipc	a3,0x2a
    800013ae:	10e68693          	addi	a3,a3,270 # 8002b4b8 <irq_table>
    800013b2:	fec42703          	lw	a4,-20(s0)
    800013b6:	87ba                	mv	a5,a4
    800013b8:	0786                	slli	a5,a5,0x1
    800013ba:	97ba                	add	a5,a5,a4
    800013bc:	078e                	slli	a5,a5,0x3
    800013be:	97b6                	add	a5,a5,a3
    800013c0:	679c                	ld	a5,8(a5)
    800013c2:	853e                	mv	a0,a5
    800013c4:	9602                	jalr	a2
    800013c6:	0001                	nop
    800013c8:	70a2                	ld	ra,40(sp)
    800013ca:	7402                	ld	s0,32(sp)
    800013cc:	6145                	addi	sp,sp,48
    800013ce:	8082                	ret

00000000800013d0 <drv_pin_attach_irq>:
    800013d0:	7139                	addi	sp,sp,-64
    800013d2:	fc06                	sd	ra,56(sp)
    800013d4:	f822                	sd	s0,48(sp)
    800013d6:	0080                	addi	s0,sp,64
    800013d8:	fca43c23          	sd	a0,-40(s0)
    800013dc:	87ae                	mv	a5,a1
    800013de:	fcd43423          	sd	a3,-56(s0)
    800013e2:	fce43023          	sd	a4,-64(s0)
    800013e6:	fcf42a23          	sw	a5,-44(s0)
    800013ea:	87b2                	mv	a5,a2
    800013ec:	fcf42823          	sw	a5,-48(s0)
    800013f0:	fd442783          	lw	a5,-44(s0)
    800013f4:	853e                	mv	a0,a5
    800013f6:	b9fff0ef          	jal	ra,80000f94 <get_pin_channel>
    800013fa:	87aa                	mv	a5,a0
    800013fc:	fef42623          	sw	a5,-20(s0)
    80001400:	fec42783          	lw	a5,-20(s0)
    80001404:	0007871b          	sext.w	a4,a5
    80001408:	57fd                	li	a5,-1
    8000140a:	02f71363          	bne	a4,a5,80001430 <drv_pin_attach_irq+0x60>
    8000140e:	fd442783          	lw	a5,-44(s0)
    80001412:	873e                	mv	a4,a5
    80001414:	00020697          	auipc	a3,0x20
    80001418:	54468693          	addi	a3,a3,1348 # 80021958 <__clzdi2+0x4b2>
    8000141c:	4605                	li	a2,1
    8000141e:	00020597          	auipc	a1,0x20
    80001422:	4c258593          	addi	a1,a1,1218 # 800218e0 <__clzdi2+0x43a>
    80001426:	450d                	li	a0,3
    80001428:	12e110ef          	jal	ra,80012556 <ulog_output>
    8000142c:	57fd                	li	a5,-1
    8000142e:	aab9                	j	8000158c <drv_pin_attach_irq+0x1bc>
    80001430:	0002a697          	auipc	a3,0x2a
    80001434:	08868693          	addi	a3,a3,136 # 8002b4b8 <irq_table>
    80001438:	fec42703          	lw	a4,-20(s0)
    8000143c:	87ba                	mv	a5,a4
    8000143e:	0786                	slli	a5,a5,0x1
    80001440:	97ba                	add	a5,a5,a4
    80001442:	078e                	slli	a5,a5,0x3
    80001444:	97b6                	add	a5,a5,a3
    80001446:	fc843703          	ld	a4,-56(s0)
    8000144a:	e398                	sd	a4,0(a5)
    8000144c:	0002a697          	auipc	a3,0x2a
    80001450:	06c68693          	addi	a3,a3,108 # 8002b4b8 <irq_table>
    80001454:	fec42703          	lw	a4,-20(s0)
    80001458:	87ba                	mv	a5,a4
    8000145a:	0786                	slli	a5,a5,0x1
    8000145c:	97ba                	add	a5,a5,a4
    8000145e:	078e                	slli	a5,a5,0x3
    80001460:	97b6                	add	a5,a5,a3
    80001462:	fc043703          	ld	a4,-64(s0)
    80001466:	e798                	sd	a4,8(a5)
    80001468:	fd042783          	lw	a5,-48(s0)
    8000146c:	0007871b          	sext.w	a4,a5
    80001470:	4791                	li	a5,4
    80001472:	0ae7ea63          	bltu	a5,a4,80001526 <drv_pin_attach_irq+0x156>
    80001476:	fd046783          	lwu	a5,-48(s0)
    8000147a:	00279713          	slli	a4,a5,0x2
    8000147e:	00025797          	auipc	a5,0x25
    80001482:	9e278793          	addi	a5,a5,-1566 # 80025e60 <__fsym___cmd_io_desc+0x10>
    80001486:	97ba                	add	a5,a5,a4
    80001488:	439c                	lw	a5,0(a5)
    8000148a:	0007871b          	sext.w	a4,a5
    8000148e:	00025797          	auipc	a5,0x25
    80001492:	9d278793          	addi	a5,a5,-1582 # 80025e60 <__fsym___cmd_io_desc+0x10>
    80001496:	97ba                	add	a5,a5,a4
    80001498:	8782                	jr	a5
    8000149a:	0002a697          	auipc	a3,0x2a
    8000149e:	01e68693          	addi	a3,a3,30 # 8002b4b8 <irq_table>
    800014a2:	fec42703          	lw	a4,-20(s0)
    800014a6:	87ba                	mv	a5,a4
    800014a8:	0786                	slli	a5,a5,0x1
    800014aa:	97ba                	add	a5,a5,a4
    800014ac:	078e                	slli	a5,a5,0x3
    800014ae:	97b6                	add	a5,a5,a3
    800014b0:	4705                	li	a4,1
    800014b2:	cb98                	sw	a4,16(a5)
    800014b4:	a895                	j	80001528 <drv_pin_attach_irq+0x158>
    800014b6:	0002a697          	auipc	a3,0x2a
    800014ba:	00268693          	addi	a3,a3,2 # 8002b4b8 <irq_table>
    800014be:	fec42703          	lw	a4,-20(s0)
    800014c2:	87ba                	mv	a5,a4
    800014c4:	0786                	slli	a5,a5,0x1
    800014c6:	97ba                	add	a5,a5,a4
    800014c8:	078e                	slli	a5,a5,0x3
    800014ca:	97b6                	add	a5,a5,a3
    800014cc:	4709                	li	a4,2
    800014ce:	cb98                	sw	a4,16(a5)
    800014d0:	a8a1                	j	80001528 <drv_pin_attach_irq+0x158>
    800014d2:	0002a697          	auipc	a3,0x2a
    800014d6:	fe668693          	addi	a3,a3,-26 # 8002b4b8 <irq_table>
    800014da:	fec42703          	lw	a4,-20(s0)
    800014de:	87ba                	mv	a5,a4
    800014e0:	0786                	slli	a5,a5,0x1
    800014e2:	97ba                	add	a5,a5,a4
    800014e4:	078e                	slli	a5,a5,0x3
    800014e6:	97b6                	add	a5,a5,a3
    800014e8:	470d                	li	a4,3
    800014ea:	cb98                	sw	a4,16(a5)
    800014ec:	a835                	j	80001528 <drv_pin_attach_irq+0x158>
    800014ee:	0002a697          	auipc	a3,0x2a
    800014f2:	fca68693          	addi	a3,a3,-54 # 8002b4b8 <irq_table>
    800014f6:	fec42703          	lw	a4,-20(s0)
    800014fa:	87ba                	mv	a5,a4
    800014fc:	0786                	slli	a5,a5,0x1
    800014fe:	97ba                	add	a5,a5,a4
    80001500:	078e                	slli	a5,a5,0x3
    80001502:	97b6                	add	a5,a5,a3
    80001504:	4711                	li	a4,4
    80001506:	cb98                	sw	a4,16(a5)
    80001508:	a005                	j	80001528 <drv_pin_attach_irq+0x158>
    8000150a:	0002a697          	auipc	a3,0x2a
    8000150e:	fae68693          	addi	a3,a3,-82 # 8002b4b8 <irq_table>
    80001512:	fec42703          	lw	a4,-20(s0)
    80001516:	87ba                	mv	a5,a4
    80001518:	0786                	slli	a5,a5,0x1
    8000151a:	97ba                	add	a5,a5,a4
    8000151c:	078e                	slli	a5,a5,0x3
    8000151e:	97b6                	add	a5,a5,a3
    80001520:	4721                	li	a4,8
    80001522:	cb98                	sw	a4,16(a5)
    80001524:	a011                	j	80001528 <drv_pin_attach_irq+0x158>
    80001526:	0001                	nop
    80001528:	fec42783          	lw	a5,-20(s0)
    8000152c:	0ff7f613          	andi	a2,a5,255
    80001530:	0002a697          	auipc	a3,0x2a
    80001534:	f8868693          	addi	a3,a3,-120 # 8002b4b8 <irq_table>
    80001538:	fec42703          	lw	a4,-20(s0)
    8000153c:	87ba                	mv	a5,a4
    8000153e:	0786                	slli	a5,a5,0x1
    80001540:	97ba                	add	a5,a5,a4
    80001542:	078e                	slli	a5,a5,0x3
    80001544:	97b6                	add	a5,a5,a3
    80001546:	4b9c                	lw	a5,16(a5)
    80001548:	85be                	mv	a1,a5
    8000154a:	8532                	mv	a0,a2
    8000154c:	071120ef          	jal	ra,80013dbc <gpiohs_set_pin_edge>
    80001550:	fd442703          	lw	a4,-44(s0)
    80001554:	fe040793          	addi	a5,s0,-32
    80001558:	86ba                	mv	a3,a4
    8000155a:	00020617          	auipc	a2,0x20
    8000155e:	41660613          	addi	a2,a2,1046 # 80021970 <__clzdi2+0x4ca>
    80001562:	45a9                	li	a1,10
    80001564:	853e                	mv	a0,a5
    80001566:	29c030ef          	jal	ra,80004802 <rt_snprintf>
    8000156a:	fec42783          	lw	a5,-20(s0)
    8000156e:	0227879b          	addiw	a5,a5,34
    80001572:	2781                	sext.w	a5,a5
    80001574:	fe040713          	addi	a4,s0,-32
    80001578:	86ba                	mv	a3,a4
    8000157a:	4601                	li	a2,0
    8000157c:	00000597          	auipc	a1,0x0
    80001580:	c1c58593          	addi	a1,a1,-996 # 80001198 <pin_irq>
    80001584:	853e                	mv	a0,a5
    80001586:	220070ef          	jal	ra,800087a6 <rt_hw_interrupt_install>
    8000158a:	4781                	li	a5,0
    8000158c:	853e                	mv	a0,a5
    8000158e:	70e2                	ld	ra,56(sp)
    80001590:	7442                	ld	s0,48(sp)
    80001592:	6121                	addi	sp,sp,64
    80001594:	8082                	ret

0000000080001596 <drv_pin_detach_irq>:
    80001596:	7179                	addi	sp,sp,-48
    80001598:	f406                	sd	ra,40(sp)
    8000159a:	f022                	sd	s0,32(sp)
    8000159c:	1800                	addi	s0,sp,48
    8000159e:	fca43c23          	sd	a0,-40(s0)
    800015a2:	87ae                	mv	a5,a1
    800015a4:	fcf42a23          	sw	a5,-44(s0)
    800015a8:	fe043423          	sd	zero,-24(s0)
    800015ac:	fd442783          	lw	a5,-44(s0)
    800015b0:	853e                	mv	a0,a5
    800015b2:	9e3ff0ef          	jal	ra,80000f94 <get_pin_channel>
    800015b6:	87aa                	mv	a5,a0
    800015b8:	fef42223          	sw	a5,-28(s0)
    800015bc:	fe442783          	lw	a5,-28(s0)
    800015c0:	0007871b          	sext.w	a4,a5
    800015c4:	57fd                	li	a5,-1
    800015c6:	02f71363          	bne	a4,a5,800015ec <drv_pin_detach_irq+0x56>
    800015ca:	fd442783          	lw	a5,-44(s0)
    800015ce:	873e                	mv	a4,a5
    800015d0:	00020697          	auipc	a3,0x20
    800015d4:	38868693          	addi	a3,a3,904 # 80021958 <__clzdi2+0x4b2>
    800015d8:	4605                	li	a2,1
    800015da:	00020597          	auipc	a1,0x20
    800015de:	30658593          	addi	a1,a1,774 # 800218e0 <__clzdi2+0x43a>
    800015e2:	450d                	li	a0,3
    800015e4:	773100ef          	jal	ra,80012556 <ulog_output>
    800015e8:	57fd                	li	a5,-1
    800015ea:	a82d                	j	80001624 <drv_pin_detach_irq+0x8e>
    800015ec:	0002a697          	auipc	a3,0x2a
    800015f0:	ecc68693          	addi	a3,a3,-308 # 8002b4b8 <irq_table>
    800015f4:	fe442703          	lw	a4,-28(s0)
    800015f8:	87ba                	mv	a5,a4
    800015fa:	0786                	slli	a5,a5,0x1
    800015fc:	97ba                	add	a5,a5,a4
    800015fe:	078e                	slli	a5,a5,0x3
    80001600:	97b6                	add	a5,a5,a3
    80001602:	0007b023          	sd	zero,0(a5)
    80001606:	0002a697          	auipc	a3,0x2a
    8000160a:	eb268693          	addi	a3,a3,-334 # 8002b4b8 <irq_table>
    8000160e:	fe442703          	lw	a4,-28(s0)
    80001612:	87ba                	mv	a5,a4
    80001614:	0786                	slli	a5,a5,0x1
    80001616:	97ba                	add	a5,a5,a4
    80001618:	078e                	slli	a5,a5,0x3
    8000161a:	97b6                	add	a5,a5,a3
    8000161c:	0007b423          	sd	zero,8(a5)
    80001620:	fe843783          	ld	a5,-24(s0)
    80001624:	853e                	mv	a0,a5
    80001626:	70a2                	ld	ra,40(sp)
    80001628:	7402                	ld	s0,32(sp)
    8000162a:	6145                	addi	sp,sp,48
    8000162c:	8082                	ret

000000008000162e <drv_pin_irq_enable>:
    8000162e:	7139                	addi	sp,sp,-64
    80001630:	fc06                	sd	ra,56(sp)
    80001632:	f822                	sd	s0,48(sp)
    80001634:	0080                	addi	s0,sp,64
    80001636:	fca43c23          	sd	a0,-40(s0)
    8000163a:	fcb43823          	sd	a1,-48(s0)
    8000163e:	87b2                	mv	a5,a2
    80001640:	fcf42623          	sw	a5,-52(s0)
    80001644:	fd043503          	ld	a0,-48(s0)
    80001648:	94dff0ef          	jal	ra,80000f94 <get_pin_channel>
    8000164c:	87aa                	mv	a5,a0
    8000164e:	fef42623          	sw	a5,-20(s0)
    80001652:	fec42783          	lw	a5,-20(s0)
    80001656:	0007871b          	sext.w	a4,a5
    8000165a:	57fd                	li	a5,-1
    8000165c:	02f71263          	bne	a4,a5,80001680 <drv_pin_irq_enable+0x52>
    80001660:	fd043703          	ld	a4,-48(s0)
    80001664:	00020697          	auipc	a3,0x20
    80001668:	2f468693          	addi	a3,a3,756 # 80021958 <__clzdi2+0x4b2>
    8000166c:	4605                	li	a2,1
    8000166e:	00020597          	auipc	a1,0x20
    80001672:	27258593          	addi	a1,a1,626 # 800218e0 <__clzdi2+0x43a>
    80001676:	450d                	li	a0,3
    80001678:	6df100ef          	jal	ra,80012556 <ulog_output>
    8000167c:	57fd                	li	a5,-1
    8000167e:	a03d                	j	800016ac <drv_pin_irq_enable+0x7e>
    80001680:	fcc42783          	lw	a5,-52(s0)
    80001684:	2781                	sext.w	a5,a5
    80001686:	cb91                	beqz	a5,8000169a <drv_pin_irq_enable+0x6c>
    80001688:	fec42783          	lw	a5,-20(s0)
    8000168c:	0227879b          	addiw	a5,a5,34
    80001690:	2781                	sext.w	a5,a5
    80001692:	853e                	mv	a0,a5
    80001694:	0e4070ef          	jal	ra,80008778 <rt_hw_interrupt_umask>
    80001698:	a809                	j	800016aa <drv_pin_irq_enable+0x7c>
    8000169a:	fec42783          	lw	a5,-20(s0)
    8000169e:	0227879b          	addiw	a5,a5,34
    800016a2:	2781                	sext.w	a5,a5
    800016a4:	853e                	mv	a0,a5
    800016a6:	0b0070ef          	jal	ra,80008756 <rt_hw_interrupt_mask>
    800016aa:	4781                	li	a5,0
    800016ac:	853e                	mv	a0,a5
    800016ae:	70e2                	ld	ra,56(sp)
    800016b0:	7442                	ld	s0,48(sp)
    800016b2:	6121                	addi	sp,sp,64
    800016b4:	8082                	ret

00000000800016b6 <rt_hw_pin_init>:
    800016b6:	1101                	addi	sp,sp,-32
    800016b8:	ec06                	sd	ra,24(sp)
    800016ba:	e822                	sd	s0,16(sp)
    800016bc:	1000                	addi	s0,sp,32
    800016be:	fe043423          	sd	zero,-24(s0)
    800016c2:	0c000613          	li	a2,192
    800016c6:	55fd                	li	a1,-1
    800016c8:	0002a517          	auipc	a0,0x2a
    800016cc:	d3050513          	addi	a0,a0,-720 # 8002b3f8 <pin_alloc_table>
    800016d0:	b51fe0ef          	jal	ra,80000220 <memset>
    800016d4:	0002a797          	auipc	a5,0x2a
    800016d8:	af478793          	addi	a5,a5,-1292 # 8002b1c8 <free_pin>
    800016dc:	0007a023          	sw	zero,0(a5)
    800016e0:	4601                	li	a2,0
    800016e2:	00024597          	auipc	a1,0x24
    800016e6:	79658593          	addi	a1,a1,1942 # 80025e78 <drv_pin_ops>
    800016ea:	00020517          	auipc	a0,0x20
    800016ee:	28e50513          	addi	a0,a0,654 # 80021978 <__clzdi2+0x4d2>
    800016f2:	4950a0ef          	jal	ra,8000c386 <rt_device_pin_register>
    800016f6:	87aa                	mv	a5,a0
    800016f8:	fef43423          	sd	a5,-24(s0)
    800016fc:	fe843783          	ld	a5,-24(s0)
    80001700:	2781                	sext.w	a5,a5
    80001702:	853e                	mv	a0,a5
    80001704:	60e2                	ld	ra,24(sp)
    80001706:	6442                	ld	s0,16(sp)
    80001708:	6105                	addi	sp,sp,32
    8000170a:	8082                	ret

000000008000170c <init_dcx>:
    8000170c:	1141                	addi	sp,sp,-16
    8000170e:	e406                	sd	ra,8(sp)
    80001710:	e022                	sd	s0,0(sp)
    80001712:	0800                	addi	s0,sp,16
    80001714:	0002a797          	auipc	a5,0x2a
    80001718:	0a478793          	addi	a5,a5,164 # 8002b7b8 <tft>
    8000171c:	0a87a783          	lw	a5,168(a5)
    80001720:	02e00593          	li	a1,46
    80001724:	853e                	mv	a0,a5
    80001726:	0e6120ef          	jal	ra,8001380c <fpioa_set_function>
    8000172a:	458d                	li	a1,3
    8000172c:	4559                	li	a0,22
    8000172e:	44a120ef          	jal	ra,80013b78 <gpiohs_set_drive_mode>
    80001732:	4585                	li	a1,1
    80001734:	4559                	li	a0,22
    80001736:	61e120ef          	jal	ra,80013d54 <gpiohs_set_pin>
    8000173a:	0001                	nop
    8000173c:	60a2                	ld	ra,8(sp)
    8000173e:	6402                	ld	s0,0(sp)
    80001740:	0141                	addi	sp,sp,16
    80001742:	8082                	ret

0000000080001744 <set_dcx_control>:
    80001744:	1141                	addi	sp,sp,-16
    80001746:	e406                	sd	ra,8(sp)
    80001748:	e022                	sd	s0,0(sp)
    8000174a:	0800                	addi	s0,sp,16
    8000174c:	4581                	li	a1,0
    8000174e:	4559                	li	a0,22
    80001750:	604120ef          	jal	ra,80013d54 <gpiohs_set_pin>
    80001754:	0001                	nop
    80001756:	60a2                	ld	ra,8(sp)
    80001758:	6402                	ld	s0,0(sp)
    8000175a:	0141                	addi	sp,sp,16
    8000175c:	8082                	ret

000000008000175e <set_dcx_data>:
    8000175e:	1141                	addi	sp,sp,-16
    80001760:	e406                	sd	ra,8(sp)
    80001762:	e022                	sd	s0,0(sp)
    80001764:	0800                	addi	s0,sp,16
    80001766:	4585                	li	a1,1
    80001768:	4559                	li	a0,22
    8000176a:	5ea120ef          	jal	ra,80013d54 <gpiohs_set_pin>
    8000176e:	0001                	nop
    80001770:	60a2                	ld	ra,8(sp)
    80001772:	6402                	ld	s0,0(sp)
    80001774:	0141                	addi	sp,sp,16
    80001776:	8082                	ret

0000000080001778 <init_rst>:
    80001778:	1141                	addi	sp,sp,-16
    8000177a:	e406                	sd	ra,8(sp)
    8000177c:	e022                	sd	s0,0(sp)
    8000177e:	0800                	addi	s0,sp,16
    80001780:	0002a797          	auipc	a5,0x2a
    80001784:	03878793          	addi	a5,a5,56 # 8002b7b8 <tft>
    80001788:	0b07a783          	lw	a5,176(a5)
    8000178c:	02d00593          	li	a1,45
    80001790:	853e                	mv	a0,a5
    80001792:	07a120ef          	jal	ra,8001380c <fpioa_set_function>
    80001796:	458d                	li	a1,3
    80001798:	4555                	li	a0,21
    8000179a:	3de120ef          	jal	ra,80013b78 <gpiohs_set_drive_mode>
    8000179e:	4585                	li	a1,1
    800017a0:	4555                	li	a0,21
    800017a2:	5b2120ef          	jal	ra,80013d54 <gpiohs_set_pin>
    800017a6:	0001                	nop
    800017a8:	60a2                	ld	ra,8(sp)
    800017aa:	6402                	ld	s0,0(sp)
    800017ac:	0141                	addi	sp,sp,16
    800017ae:	8082                	ret

00000000800017b0 <set_rst>:
    800017b0:	1101                	addi	sp,sp,-32
    800017b2:	ec06                	sd	ra,24(sp)
    800017b4:	e822                	sd	s0,16(sp)
    800017b6:	1000                	addi	s0,sp,32
    800017b8:	87aa                	mv	a5,a0
    800017ba:	fef407a3          	sb	a5,-17(s0)
    800017be:	fef44783          	lbu	a5,-17(s0)
    800017c2:	2781                	sext.w	a5,a5
    800017c4:	85be                	mv	a1,a5
    800017c6:	4555                	li	a0,21
    800017c8:	58c120ef          	jal	ra,80013d54 <gpiohs_set_pin>
    800017cc:	0001                	nop
    800017ce:	60e2                	ld	ra,24(sp)
    800017d0:	6442                	ld	s0,16(sp)
    800017d2:	6105                	addi	sp,sp,32
    800017d4:	8082                	ret

00000000800017d6 <tft_set_clk_freq>:
    800017d6:	1101                	addi	sp,sp,-32
    800017d8:	ec06                	sd	ra,24(sp)
    800017da:	e822                	sd	s0,16(sp)
    800017dc:	1000                	addi	s0,sp,32
    800017de:	87aa                	mv	a5,a0
    800017e0:	fef42623          	sw	a5,-20(s0)
    800017e4:	0002a797          	auipc	a5,0x2a
    800017e8:	fd478793          	addi	a5,a5,-44 # 8002b7b8 <tft>
    800017ec:	0987a783          	lw	a5,152(a5)
    800017f0:	fec42703          	lw	a4,-20(s0)
    800017f4:	85ba                	mv	a1,a4
    800017f6:	853e                	mv	a0,a5
    800017f8:	5d7120ef          	jal	ra,800145ce <spi_set_clk_rate>
    800017fc:	0001                	nop
    800017fe:	60e2                	ld	ra,24(sp)
    80001800:	6442                	ld	s0,16(sp)
    80001802:	6105                	addi	sp,sp,32
    80001804:	8082                	ret

0000000080001806 <init_cs>:
    80001806:	1141                	addi	sp,sp,-16
    80001808:	e406                	sd	ra,8(sp)
    8000180a:	e022                	sd	s0,0(sp)
    8000180c:	0800                	addi	s0,sp,16
    8000180e:	0002a797          	auipc	a5,0x2a
    80001812:	faa78793          	addi	a5,a5,-86 # 8002b7b8 <tft>
    80001816:	0a47a703          	lw	a4,164(a5)
    8000181a:	0002a797          	auipc	a5,0x2a
    8000181e:	f9e78793          	addi	a5,a5,-98 # 8002b7b8 <tft>
    80001822:	09c7a783          	lw	a5,156(a5)
    80001826:	27b1                	addiw	a5,a5,12
    80001828:	2781                	sext.w	a5,a5
    8000182a:	85be                	mv	a1,a5
    8000182c:	853a                	mv	a0,a4
    8000182e:	7df110ef          	jal	ra,8001380c <fpioa_set_function>
    80001832:	0001                	nop
    80001834:	60a2                	ld	ra,8(sp)
    80001836:	6402                	ld	s0,0(sp)
    80001838:	0141                	addi	sp,sp,16
    8000183a:	8082                	ret

000000008000183c <init_clk>:
    8000183c:	1141                	addi	sp,sp,-16
    8000183e:	e406                	sd	ra,8(sp)
    80001840:	e022                	sd	s0,0(sp)
    80001842:	0800                	addi	s0,sp,16
    80001844:	0002a797          	auipc	a5,0x2a
    80001848:	f7478793          	addi	a5,a5,-140 # 8002b7b8 <tft>
    8000184c:	0ac7a783          	lw	a5,172(a5)
    80001850:	45c5                	li	a1,17
    80001852:	853e                	mv	a0,a5
    80001854:	7b9110ef          	jal	ra,8001380c <fpioa_set_function>
    80001858:	0001                	nop
    8000185a:	60a2                	ld	ra,8(sp)
    8000185c:	6402                	ld	s0,0(sp)
    8000185e:	0141                	addi	sp,sp,16
    80001860:	8082                	ret

0000000080001862 <tft_write_command>:
    80001862:	1101                	addi	sp,sp,-32
    80001864:	ec06                	sd	ra,24(sp)
    80001866:	e822                	sd	s0,16(sp)
    80001868:	1000                	addi	s0,sp,32
    8000186a:	87aa                	mv	a5,a0
    8000186c:	fef407a3          	sb	a5,-17(s0)
    80001870:	ed5ff0ef          	jal	ra,80001744 <set_dcx_control>
    80001874:	0002a797          	auipc	a5,0x2a
    80001878:	f4478793          	addi	a5,a5,-188 # 8002b7b8 <tft>
    8000187c:	0987a783          	lw	a5,152(a5)
    80001880:	4701                	li	a4,0
    80001882:	46a1                	li	a3,8
    80001884:	460d                	li	a2,3
    80001886:	4581                	li	a1,0
    80001888:	853e                	mv	a0,a5
    8000188a:	0af120ef          	jal	ra,80014138 <spi_init>
    8000188e:	0002a797          	auipc	a5,0x2a
    80001892:	f2a78793          	addi	a5,a5,-214 # 8002b7b8 <tft>
    80001896:	0987a783          	lw	a5,152(a5)
    8000189a:	4709                	li	a4,2
    8000189c:	4681                	li	a3,0
    8000189e:	4601                	li	a2,0
    800018a0:	45a1                	li	a1,8
    800018a2:	853e                	mv	a0,a5
    800018a4:	329120ef          	jal	ra,800143cc <spi_init_non_standard>
    800018a8:	0002a797          	auipc	a5,0x2a
    800018ac:	f1078793          	addi	a5,a5,-240 # 8002b7b8 <tft>
    800018b0:	0a07a503          	lw	a0,160(a5)
    800018b4:	0002a797          	auipc	a5,0x2a
    800018b8:	f0478793          	addi	a5,a5,-252 # 8002b7b8 <tft>
    800018bc:	0987a583          	lw	a1,152(a5)
    800018c0:	0002a797          	auipc	a5,0x2a
    800018c4:	ef878793          	addi	a5,a5,-264 # 8002b7b8 <tft>
    800018c8:	09c7a603          	lw	a2,156(a5)
    800018cc:	fef40693          	addi	a3,s0,-17
    800018d0:	4785                	li	a5,1
    800018d2:	4705                	li	a4,1
    800018d4:	5a7120ef          	jal	ra,8001467a <spi_send_data_normal_dma>
    800018d8:	0001                	nop
    800018da:	60e2                	ld	ra,24(sp)
    800018dc:	6442                	ld	s0,16(sp)
    800018de:	6105                	addi	sp,sp,32
    800018e0:	8082                	ret

00000000800018e2 <tft_write_byte>:
    800018e2:	1101                	addi	sp,sp,-32
    800018e4:	ec06                	sd	ra,24(sp)
    800018e6:	e822                	sd	s0,16(sp)
    800018e8:	1000                	addi	s0,sp,32
    800018ea:	fea43423          	sd	a0,-24(s0)
    800018ee:	87ae                	mv	a5,a1
    800018f0:	fef42223          	sw	a5,-28(s0)
    800018f4:	e6bff0ef          	jal	ra,8000175e <set_dcx_data>
    800018f8:	0002a797          	auipc	a5,0x2a
    800018fc:	ec078793          	addi	a5,a5,-320 # 8002b7b8 <tft>
    80001900:	0987a783          	lw	a5,152(a5)
    80001904:	4701                	li	a4,0
    80001906:	46a1                	li	a3,8
    80001908:	460d                	li	a2,3
    8000190a:	4581                	li	a1,0
    8000190c:	853e                	mv	a0,a5
    8000190e:	02b120ef          	jal	ra,80014138 <spi_init>
    80001912:	0002a797          	auipc	a5,0x2a
    80001916:	ea678793          	addi	a5,a5,-346 # 8002b7b8 <tft>
    8000191a:	0987a783          	lw	a5,152(a5)
    8000191e:	4709                	li	a4,2
    80001920:	4681                	li	a3,0
    80001922:	4621                	li	a2,8
    80001924:	4581                	li	a1,0
    80001926:	853e                	mv	a0,a5
    80001928:	2a5120ef          	jal	ra,800143cc <spi_init_non_standard>
    8000192c:	0002a797          	auipc	a5,0x2a
    80001930:	e8c78793          	addi	a5,a5,-372 # 8002b7b8 <tft>
    80001934:	0a07a503          	lw	a0,160(a5)
    80001938:	0002a797          	auipc	a5,0x2a
    8000193c:	e8078793          	addi	a5,a5,-384 # 8002b7b8 <tft>
    80001940:	0987a583          	lw	a1,152(a5)
    80001944:	0002a797          	auipc	a5,0x2a
    80001948:	e7478793          	addi	a5,a5,-396 # 8002b7b8 <tft>
    8000194c:	09c7a603          	lw	a2,156(a5)
    80001950:	fe446703          	lwu	a4,-28(s0)
    80001954:	4785                	li	a5,1
    80001956:	fe843683          	ld	a3,-24(s0)
    8000195a:	521120ef          	jal	ra,8001467a <spi_send_data_normal_dma>
    8000195e:	0001                	nop
    80001960:	60e2                	ld	ra,24(sp)
    80001962:	6442                	ld	s0,16(sp)
    80001964:	6105                	addi	sp,sp,32
    80001966:	8082                	ret

0000000080001968 <tft_fill_data>:
    80001968:	1101                	addi	sp,sp,-32
    8000196a:	ec06                	sd	ra,24(sp)
    8000196c:	e822                	sd	s0,16(sp)
    8000196e:	1000                	addi	s0,sp,32
    80001970:	fea43423          	sd	a0,-24(s0)
    80001974:	87ae                	mv	a5,a1
    80001976:	fef42223          	sw	a5,-28(s0)
    8000197a:	de5ff0ef          	jal	ra,8000175e <set_dcx_data>
    8000197e:	0002a797          	auipc	a5,0x2a
    80001982:	e3a78793          	addi	a5,a5,-454 # 8002b7b8 <tft>
    80001986:	0987a783          	lw	a5,152(a5)
    8000198a:	4701                	li	a4,0
    8000198c:	02000693          	li	a3,32
    80001990:	460d                	li	a2,3
    80001992:	4581                	li	a1,0
    80001994:	853e                	mv	a0,a5
    80001996:	7a2120ef          	jal	ra,80014138 <spi_init>
    8000199a:	0002a797          	auipc	a5,0x2a
    8000199e:	e1e78793          	addi	a5,a5,-482 # 8002b7b8 <tft>
    800019a2:	0987a783          	lw	a5,152(a5)
    800019a6:	4709                	li	a4,2
    800019a8:	4681                	li	a3,0
    800019aa:	02000613          	li	a2,32
    800019ae:	4581                	li	a1,0
    800019b0:	853e                	mv	a0,a5
    800019b2:	21b120ef          	jal	ra,800143cc <spi_init_non_standard>
    800019b6:	0002a797          	auipc	a5,0x2a
    800019ba:	e0278793          	addi	a5,a5,-510 # 8002b7b8 <tft>
    800019be:	0a07a503          	lw	a0,160(a5)
    800019c2:	0002a797          	auipc	a5,0x2a
    800019c6:	df678793          	addi	a5,a5,-522 # 8002b7b8 <tft>
    800019ca:	0987a583          	lw	a1,152(a5)
    800019ce:	0002a797          	auipc	a5,0x2a
    800019d2:	dea78793          	addi	a5,a5,-534 # 8002b7b8 <tft>
    800019d6:	09c7a783          	lw	a5,156(a5)
    800019da:	fe446703          	lwu	a4,-28(s0)
    800019de:	fe843683          	ld	a3,-24(s0)
    800019e2:	863e                	mv	a2,a5
    800019e4:	6a7120ef          	jal	ra,8001488a <spi_fill_data_dma>
    800019e8:	0001                	nop
    800019ea:	60e2                	ld	ra,24(sp)
    800019ec:	6442                	ld	s0,16(sp)
    800019ee:	6105                	addi	sp,sp,32
    800019f0:	8082                	ret

00000000800019f2 <tft_hw_init>:
    800019f2:	7179                	addi	sp,sp,-48
    800019f4:	f406                	sd	ra,40(sp)
    800019f6:	f022                	sd	s0,32(sp)
    800019f8:	1800                	addi	s0,sp,48
    800019fa:	fca43c23          	sd	a0,-40(s0)
    800019fe:	e3fff0ef          	jal	ra,8000183c <init_clk>
    80001a02:	e05ff0ef          	jal	ra,80001806 <init_cs>
    80001a06:	d07ff0ef          	jal	ra,8000170c <init_dcx>
    80001a0a:	d6fff0ef          	jal	ra,80001778 <init_rst>
    80001a0e:	4501                	li	a0,0
    80001a10:	da1ff0ef          	jal	ra,800017b0 <set_rst>
    80001a14:	0002a797          	auipc	a5,0x2a
    80001a18:	da478793          	addi	a5,a5,-604 # 8002b7b8 <tft>
    80001a1c:	0987a783          	lw	a5,152(a5)
    80001a20:	4701                	li	a4,0
    80001a22:	46a1                	li	a3,8
    80001a24:	460d                	li	a2,3
    80001a26:	4581                	li	a1,0
    80001a28:	853e                	mv	a0,a5
    80001a2a:	70e120ef          	jal	ra,80014138 <spi_init>
    80001a2e:	013137b7          	lui	a5,0x1313
    80001a32:	d0078513          	addi	a0,a5,-768 # 1312d00 <__STACKSIZE__+0x1311d00>
    80001a36:	da1ff0ef          	jal	ra,800017d6 <tft_set_clk_freq>
    80001a3a:	03200513          	li	a0,50
    80001a3e:	245050ef          	jal	ra,80007482 <rt_thread_mdelay>
    80001a42:	4505                	li	a0,1
    80001a44:	d6dff0ef          	jal	ra,800017b0 <set_rst>
    80001a48:	03200513          	li	a0,50
    80001a4c:	237050ef          	jal	ra,80007482 <rt_thread_mdelay>
    80001a50:	4505                	li	a0,1
    80001a52:	e11ff0ef          	jal	ra,80001862 <tft_write_command>
    80001a56:	09600513          	li	a0,150
    80001a5a:	229050ef          	jal	ra,80007482 <rt_thread_mdelay>
    80001a5e:	4545                	li	a0,17
    80001a60:	e03ff0ef          	jal	ra,80001862 <tft_write_command>
    80001a64:	1f400513          	li	a0,500
    80001a68:	21b050ef          	jal	ra,80007482 <rt_thread_mdelay>
    80001a6c:	05500793          	li	a5,85
    80001a70:	fef407a3          	sb	a5,-17(s0)
    80001a74:	03a00513          	li	a0,58
    80001a78:	debff0ef          	jal	ra,80001862 <tft_write_command>
    80001a7c:	fef40793          	addi	a5,s0,-17
    80001a80:	4585                	li	a1,1
    80001a82:	853e                	mv	a0,a5
    80001a84:	e5fff0ef          	jal	ra,800018e2 <tft_write_byte>
    80001a88:	4529                	li	a0,10
    80001a8a:	1f9050ef          	jal	ra,80007482 <rt_thread_mdelay>
    80001a8e:	fa000793          	li	a5,-96
    80001a92:	fef407a3          	sb	a5,-17(s0)
    80001a96:	03600513          	li	a0,54
    80001a9a:	dc9ff0ef          	jal	ra,80001862 <tft_write_command>
    80001a9e:	fef40793          	addi	a5,s0,-17
    80001aa2:	4585                	li	a1,1
    80001aa4:	853e                	mv	a0,a5
    80001aa6:	e3dff0ef          	jal	ra,800018e2 <tft_write_byte>
    80001aaa:	454d                	li	a0,19
    80001aac:	db7ff0ef          	jal	ra,80001862 <tft_write_command>
    80001ab0:	4529                	li	a0,10
    80001ab2:	1d1050ef          	jal	ra,80007482 <rt_thread_mdelay>
    80001ab6:	02900513          	li	a0,41
    80001aba:	da9ff0ef          	jal	ra,80001862 <tft_write_command>
    80001abe:	06400513          	li	a0,100
    80001ac2:	1c1050ef          	jal	ra,80007482 <rt_thread_mdelay>
    80001ac6:	4781                	li	a5,0
    80001ac8:	853e                	mv	a0,a5
    80001aca:	70a2                	ld	ra,40(sp)
    80001acc:	7402                	ld	s0,32(sp)
    80001ace:	6145                	addi	sp,sp,48
    80001ad0:	8082                	ret

0000000080001ad2 <rt_hw_tft_init>:
    80001ad2:	1101                	addi	sp,sp,-32
    80001ad4:	ec06                	sd	ra,24(sp)
    80001ad6:	e822                	sd	s0,16(sp)
    80001ad8:	1000                	addi	s0,sp,32
    80001ada:	0002a797          	auipc	a5,0x2a
    80001ade:	cde78793          	addi	a5,a5,-802 # 8002b7b8 <tft>
    80001ae2:	471d                	li	a4,7
    80001ae4:	d398                	sw	a4,32(a5)
    80001ae6:	0002a797          	auipc	a5,0x2a
    80001aea:	cd278793          	addi	a5,a5,-814 # 8002b7b8 <tft>
    80001aee:	00000717          	auipc	a4,0x0
    80001af2:	f0470713          	addi	a4,a4,-252 # 800019f2 <tft_hw_init>
    80001af6:	e3b8                	sd	a4,64(a5)
    80001af8:	0002a797          	auipc	a5,0x2a
    80001afc:	cc078793          	addi	a5,a5,-832 # 8002b7b8 <tft>
    80001b00:	0407b423          	sd	zero,72(a5)
    80001b04:	0002a797          	auipc	a5,0x2a
    80001b08:	cb478793          	addi	a5,a5,-844 # 8002b7b8 <tft>
    80001b0c:	0407b823          	sd	zero,80(a5)
    80001b10:	0002a797          	auipc	a5,0x2a
    80001b14:	ca878793          	addi	a5,a5,-856 # 8002b7b8 <tft>
    80001b18:	0407bc23          	sd	zero,88(a5)
    80001b1c:	0002a797          	auipc	a5,0x2a
    80001b20:	c9c78793          	addi	a5,a5,-868 # 8002b7b8 <tft>
    80001b24:	0607b023          	sd	zero,96(a5)
    80001b28:	0002a797          	auipc	a5,0x2a
    80001b2c:	c9078793          	addi	a5,a5,-880 # 8002b7b8 <tft>
    80001b30:	0607b423          	sd	zero,104(a5)
    80001b34:	0002a797          	auipc	a5,0x2a
    80001b38:	c8478793          	addi	a5,a5,-892 # 8002b7b8 <tft>
    80001b3c:	4741                	li	a4,16
    80001b3e:	0ae78ca3          	sb	a4,185(a5)
    80001b42:	0002a797          	auipc	a5,0x2a
    80001b46:	c7678793          	addi	a5,a5,-906 # 8002b7b8 <tft>
    80001b4a:	4715                	li	a4,5
    80001b4c:	0ae78c23          	sb	a4,184(a5)
    80001b50:	0002a797          	auipc	a5,0x2a
    80001b54:	c6878793          	addi	a5,a5,-920 # 8002b7b8 <tft>
    80001b58:	14000713          	li	a4,320
    80001b5c:	0ae79e23          	sh	a4,188(a5)
    80001b60:	0002a797          	auipc	a5,0x2a
    80001b64:	c5878793          	addi	a5,a5,-936 # 8002b7b8 <tft>
    80001b68:	0f000713          	li	a4,240
    80001b6c:	0ae79f23          	sh	a4,190(a5)
    80001b70:	0002a797          	auipc	a5,0x2a
    80001b74:	c4878793          	addi	a5,a5,-952 # 8002b7b8 <tft>
    80001b78:	0002a717          	auipc	a4,0x2a
    80001b7c:	cf870713          	addi	a4,a4,-776 # 8002b870 <tft+0xb8>
    80001b80:	ebd8                	sd	a4,144(a5)
    80001b82:	0002a797          	auipc	a5,0x2a
    80001b86:	c3678793          	addi	a5,a5,-970 # 8002b7b8 <tft>
    80001b8a:	00020717          	auipc	a4,0x20
    80001b8e:	dfe70713          	addi	a4,a4,-514 # 80021988 <__clzdi2+0x4e2>
    80001b92:	630c                	ld	a1,0(a4)
    80001b94:	6710                	ld	a2,8(a4)
    80001b96:	6b14                	ld	a3,16(a4)
    80001b98:	efcc                	sd	a1,152(a5)
    80001b9a:	f3d0                	sd	a2,160(a5)
    80001b9c:	f7d4                	sd	a3,168(a5)
    80001b9e:	4f18                	lw	a4,24(a4)
    80001ba0:	0ae7a823          	sw	a4,176(a5)
    80001ba4:	4505                	li	a0,1
    80001ba6:	56e150ef          	jal	ra,80017114 <sysctl_set_spi0_dvp_data>
    80001baa:	460d                	li	a2,3
    80001bac:	00020597          	auipc	a1,0x20
    80001bb0:	dd458593          	addi	a1,a1,-556 # 80021980 <__clzdi2+0x4da>
    80001bb4:	0002a517          	auipc	a0,0x2a
    80001bb8:	c0450513          	addi	a0,a0,-1020 # 8002b7b8 <tft>
    80001bbc:	61e000ef          	jal	ra,800021da <rt_device_register>
    80001bc0:	fea43423          	sd	a0,-24(s0)
    80001bc4:	fe843783          	ld	a5,-24(s0)
    80001bc8:	2781                	sext.w	a5,a5
    80001bca:	853e                	mv	a0,a5
    80001bcc:	60e2                	ld	ra,24(sp)
    80001bce:	6442                	ld	s0,16(sp)
    80001bd0:	6105                	addi	sp,sp,32
    80001bd2:	8082                	ret

0000000080001bd4 <tft_set_area>:
    80001bd4:	7179                	addi	sp,sp,-48
    80001bd6:	f406                	sd	ra,40(sp)
    80001bd8:	f022                	sd	s0,32(sp)
    80001bda:	1800                	addi	s0,sp,48
    80001bdc:	87aa                	mv	a5,a0
    80001bde:	8736                	mv	a4,a3
    80001be0:	fcf41f23          	sh	a5,-34(s0)
    80001be4:	87ae                	mv	a5,a1
    80001be6:	fcf41e23          	sh	a5,-36(s0)
    80001bea:	87b2                	mv	a5,a2
    80001bec:	fcf41d23          	sh	a5,-38(s0)
    80001bf0:	87ba                	mv	a5,a4
    80001bf2:	fcf41c23          	sh	a5,-40(s0)
    80001bf6:	fe042423          	sw	zero,-24(s0)
    80001bfa:	fde45783          	lhu	a5,-34(s0)
    80001bfe:	0087d79b          	srliw	a5,a5,0x8
    80001c02:	17c2                	slli	a5,a5,0x30
    80001c04:	93c1                	srli	a5,a5,0x30
    80001c06:	0ff7f793          	andi	a5,a5,255
    80001c0a:	fef40423          	sb	a5,-24(s0)
    80001c0e:	fde45783          	lhu	a5,-34(s0)
    80001c12:	0ff7f793          	andi	a5,a5,255
    80001c16:	fef404a3          	sb	a5,-23(s0)
    80001c1a:	fda45783          	lhu	a5,-38(s0)
    80001c1e:	0087d79b          	srliw	a5,a5,0x8
    80001c22:	17c2                	slli	a5,a5,0x30
    80001c24:	93c1                	srli	a5,a5,0x30
    80001c26:	0ff7f793          	andi	a5,a5,255
    80001c2a:	fef40523          	sb	a5,-22(s0)
    80001c2e:	fda45783          	lhu	a5,-38(s0)
    80001c32:	0ff7f793          	andi	a5,a5,255
    80001c36:	fef405a3          	sb	a5,-21(s0)
    80001c3a:	02a00513          	li	a0,42
    80001c3e:	c25ff0ef          	jal	ra,80001862 <tft_write_command>
    80001c42:	fe840793          	addi	a5,s0,-24
    80001c46:	4591                	li	a1,4
    80001c48:	853e                	mv	a0,a5
    80001c4a:	c99ff0ef          	jal	ra,800018e2 <tft_write_byte>
    80001c4e:	fdc45783          	lhu	a5,-36(s0)
    80001c52:	0087d79b          	srliw	a5,a5,0x8
    80001c56:	17c2                	slli	a5,a5,0x30
    80001c58:	93c1                	srli	a5,a5,0x30
    80001c5a:	0ff7f793          	andi	a5,a5,255
    80001c5e:	fef40423          	sb	a5,-24(s0)
    80001c62:	fdc45783          	lhu	a5,-36(s0)
    80001c66:	0ff7f793          	andi	a5,a5,255
    80001c6a:	fef404a3          	sb	a5,-23(s0)
    80001c6e:	fd845783          	lhu	a5,-40(s0)
    80001c72:	0087d79b          	srliw	a5,a5,0x8
    80001c76:	17c2                	slli	a5,a5,0x30
    80001c78:	93c1                	srli	a5,a5,0x30
    80001c7a:	0ff7f793          	andi	a5,a5,255
    80001c7e:	fef40523          	sb	a5,-22(s0)
    80001c82:	fd845783          	lhu	a5,-40(s0)
    80001c86:	0ff7f793          	andi	a5,a5,255
    80001c8a:	fef405a3          	sb	a5,-21(s0)
    80001c8e:	02b00513          	li	a0,43
    80001c92:	bd1ff0ef          	jal	ra,80001862 <tft_write_command>
    80001c96:	fe840793          	addi	a5,s0,-24
    80001c9a:	4591                	li	a1,4
    80001c9c:	853e                	mv	a0,a5
    80001c9e:	c45ff0ef          	jal	ra,800018e2 <tft_write_byte>
    80001ca2:	02c00513          	li	a0,44
    80001ca6:	bbdff0ef          	jal	ra,80001862 <tft_write_command>
    80001caa:	0001                	nop
    80001cac:	70a2                	ld	ra,40(sp)
    80001cae:	7402                	ld	s0,32(sp)
    80001cb0:	6145                	addi	sp,sp,48
    80001cb2:	8082                	ret

0000000080001cb4 <tft_clear>:
    80001cb4:	7179                	addi	sp,sp,-48
    80001cb6:	f406                	sd	ra,40(sp)
    80001cb8:	f022                	sd	s0,32(sp)
    80001cba:	1800                	addi	s0,sp,48
    80001cbc:	87aa                	mv	a5,a0
    80001cbe:	fcf41f23          	sh	a5,-34(s0)
    80001cc2:	fde45783          	lhu	a5,-34(s0)
    80001cc6:	2781                	sext.w	a5,a5
    80001cc8:	0107979b          	slliw	a5,a5,0x10
    80001ccc:	0007871b          	sext.w	a4,a5
    80001cd0:	fde45783          	lhu	a5,-34(s0)
    80001cd4:	2781                	sext.w	a5,a5
    80001cd6:	8fd9                	or	a5,a5,a4
    80001cd8:	2781                	sext.w	a5,a5
    80001cda:	fef42623          	sw	a5,-20(s0)
    80001cde:	0002a797          	auipc	a5,0x2a
    80001ce2:	ada78793          	addi	a5,a5,-1318 # 8002b7b8 <tft>
    80001ce6:	0bc7d703          	lhu	a4,188(a5)
    80001cea:	0002a797          	auipc	a5,0x2a
    80001cee:	ace78793          	addi	a5,a5,-1330 # 8002b7b8 <tft>
    80001cf2:	0be7d783          	lhu	a5,190(a5)
    80001cf6:	86be                	mv	a3,a5
    80001cf8:	863a                	mv	a2,a4
    80001cfa:	4581                	li	a1,0
    80001cfc:	4501                	li	a0,0
    80001cfe:	ed7ff0ef          	jal	ra,80001bd4 <tft_set_area>
    80001d02:	0002a797          	auipc	a5,0x2a
    80001d06:	ab678793          	addi	a5,a5,-1354 # 8002b7b8 <tft>
    80001d0a:	0bc7d783          	lhu	a5,188(a5)
    80001d0e:	0007871b          	sext.w	a4,a5
    80001d12:	0002a797          	auipc	a5,0x2a
    80001d16:	aa678793          	addi	a5,a5,-1370 # 8002b7b8 <tft>
    80001d1a:	0be7d783          	lhu	a5,190(a5)
    80001d1e:	2781                	sext.w	a5,a5
    80001d20:	02f707bb          	mulw	a5,a4,a5
    80001d24:	2781                	sext.w	a5,a5
    80001d26:	01f7d71b          	srliw	a4,a5,0x1f
    80001d2a:	9fb9                	addw	a5,a5,a4
    80001d2c:	4017d79b          	sraiw	a5,a5,0x1
    80001d30:	2781                	sext.w	a5,a5
    80001d32:	0007871b          	sext.w	a4,a5
    80001d36:	fec40793          	addi	a5,s0,-20
    80001d3a:	85ba                	mv	a1,a4
    80001d3c:	853e                	mv	a0,a5
    80001d3e:	c2bff0ef          	jal	ra,80001968 <tft_fill_data>
    80001d42:	0001                	nop
    80001d44:	70a2                	ld	ra,40(sp)
    80001d46:	7402                	ld	s0,32(sp)
    80001d48:	6145                	addi	sp,sp,48
    80001d4a:	8082                	ret

0000000080001d4c <rt_tick_get>:
    80001d4c:	1141                	addi	sp,sp,-16
    80001d4e:	e406                	sd	ra,8(sp)
    80001d50:	e022                	sd	s0,0(sp)
    80001d52:	0800                	addi	s0,sp,16
    80001d54:	4501                	li	a0,0
    80001d56:	2ca000ef          	jal	ra,80002020 <rt_cpu_index>
    80001d5a:	87aa                	mv	a5,a0
    80001d5c:	2147a783          	lw	a5,532(a5)
    80001d60:	853e                	mv	a0,a5
    80001d62:	60a2                	ld	ra,8(sp)
    80001d64:	6402                	ld	s0,0(sp)
    80001d66:	0141                	addi	sp,sp,16
    80001d68:	8082                	ret

0000000080001d6a <rt_tick_increase>:
    80001d6a:	1101                	addi	sp,sp,-32
    80001d6c:	ec06                	sd	ra,24(sp)
    80001d6e:	e822                	sd	s0,16(sp)
    80001d70:	1000                	addi	s0,sp,32
    80001d72:	282000ef          	jal	ra,80001ff4 <rt_cpu_self>
    80001d76:	87aa                	mv	a5,a0
    80001d78:	2147a703          	lw	a4,532(a5)
    80001d7c:	2705                	addiw	a4,a4,1
    80001d7e:	2701                	sext.w	a4,a4
    80001d80:	20e7aa23          	sw	a4,532(a5)
    80001d84:	38e050ef          	jal	ra,80007112 <rt_thread_self>
    80001d88:	fea43423          	sd	a0,-24(s0)
    80001d8c:	fe843783          	ld	a5,-24(s0)
    80001d90:	63dc                	ld	a5,128(a5)
    80001d92:	fff78713          	addi	a4,a5,-1
    80001d96:	fe843783          	ld	a5,-24(s0)
    80001d9a:	e3d8                	sd	a4,128(a5)
    80001d9c:	fe843783          	ld	a5,-24(s0)
    80001da0:	63dc                	ld	a5,128(a5)
    80001da2:	e78d                	bnez	a5,80001dcc <rt_tick_increase+0x62>
    80001da4:	fe843783          	ld	a5,-24(s0)
    80001da8:	7fb8                	ld	a4,120(a5)
    80001daa:	fe843783          	ld	a5,-24(s0)
    80001dae:	e3d8                	sd	a4,128(a5)
    80001db0:	fe843783          	ld	a5,-24(s0)
    80001db4:	0607c783          	lbu	a5,96(a5)
    80001db8:	0087e793          	ori	a5,a5,8
    80001dbc:	0ff7f713          	andi	a4,a5,255
    80001dc0:	fe843783          	ld	a5,-24(s0)
    80001dc4:	06e78023          	sb	a4,96(a5)
    80001dc8:	5c0050ef          	jal	ra,80007388 <rt_thread_yield>
    80001dcc:	294060ef          	jal	ra,80008060 <rt_timer_check>
    80001dd0:	0001                	nop
    80001dd2:	60e2                	ld	ra,24(sp)
    80001dd4:	6442                	ld	s0,16(sp)
    80001dd6:	6105                	addi	sp,sp,32
    80001dd8:	8082                	ret

0000000080001dda <rt_tick_from_millisecond>:
    80001dda:	7179                	addi	sp,sp,-48
    80001ddc:	f422                	sd	s0,40(sp)
    80001dde:	1800                	addi	s0,sp,48
    80001de0:	87aa                	mv	a5,a0
    80001de2:	fcf42e23          	sw	a5,-36(s0)
    80001de6:	fdc42783          	lw	a5,-36(s0)
    80001dea:	2781                	sext.w	a5,a5
    80001dec:	0007d663          	bgez	a5,80001df8 <rt_tick_from_millisecond+0x1e>
    80001df0:	57fd                	li	a5,-1
    80001df2:	fef42623          	sw	a5,-20(s0)
    80001df6:	a8a1                	j	80001e4e <rt_tick_from_millisecond+0x74>
    80001df8:	fdc42703          	lw	a4,-36(s0)
    80001dfc:	3e800793          	li	a5,1000
    80001e00:	02f747bb          	divw	a5,a4,a5
    80001e04:	0007871b          	sext.w	a4,a5
    80001e08:	3e800793          	li	a5,1000
    80001e0c:	02f707bb          	mulw	a5,a4,a5
    80001e10:	2781                	sext.w	a5,a5
    80001e12:	fef42623          	sw	a5,-20(s0)
    80001e16:	fdc42703          	lw	a4,-36(s0)
    80001e1a:	3e800793          	li	a5,1000
    80001e1e:	02f767bb          	remw	a5,a4,a5
    80001e22:	0007871b          	sext.w	a4,a5
    80001e26:	3e800793          	li	a5,1000
    80001e2a:	02f707bb          	mulw	a5,a4,a5
    80001e2e:	2781                	sext.w	a5,a5
    80001e30:	3e77879b          	addiw	a5,a5,999
    80001e34:	2781                	sext.w	a5,a5
    80001e36:	873e                	mv	a4,a5
    80001e38:	3e800793          	li	a5,1000
    80001e3c:	02f747bb          	divw	a5,a4,a5
    80001e40:	2781                	sext.w	a5,a5
    80001e42:	2781                	sext.w	a5,a5
    80001e44:	fec42703          	lw	a4,-20(s0)
    80001e48:	9fb9                	addw	a5,a5,a4
    80001e4a:	fef42623          	sw	a5,-20(s0)
    80001e4e:	fec42783          	lw	a5,-20(s0)
    80001e52:	853e                	mv	a0,a5
    80001e54:	7422                	ld	s0,40(sp)
    80001e56:	6145                	addi	sp,sp,48
    80001e58:	8082                	ret

0000000080001e5a <rti_start>:
    80001e5a:	1141                	addi	sp,sp,-16
    80001e5c:	e422                	sd	s0,8(sp)
    80001e5e:	0800                	addi	s0,sp,16
    80001e60:	4781                	li	a5,0
    80001e62:	853e                	mv	a0,a5
    80001e64:	6422                	ld	s0,8(sp)
    80001e66:	0141                	addi	sp,sp,16
    80001e68:	8082                	ret

0000000080001e6a <rti_board_start>:
    80001e6a:	1141                	addi	sp,sp,-16
    80001e6c:	e422                	sd	s0,8(sp)
    80001e6e:	0800                	addi	s0,sp,16
    80001e70:	4781                	li	a5,0
    80001e72:	853e                	mv	a0,a5
    80001e74:	6422                	ld	s0,8(sp)
    80001e76:	0141                	addi	sp,sp,16
    80001e78:	8082                	ret

0000000080001e7a <rti_board_end>:
    80001e7a:	1141                	addi	sp,sp,-16
    80001e7c:	e422                	sd	s0,8(sp)
    80001e7e:	0800                	addi	s0,sp,16
    80001e80:	4781                	li	a5,0
    80001e82:	853e                	mv	a0,a5
    80001e84:	6422                	ld	s0,8(sp)
    80001e86:	0141                	addi	sp,sp,16
    80001e88:	8082                	ret

0000000080001e8a <rti_end>:
    80001e8a:	1141                	addi	sp,sp,-16
    80001e8c:	e422                	sd	s0,8(sp)
    80001e8e:	0800                	addi	s0,sp,16
    80001e90:	4781                	li	a5,0
    80001e92:	853e                	mv	a0,a5
    80001e94:	6422                	ld	s0,8(sp)
    80001e96:	0141                	addi	sp,sp,16
    80001e98:	8082                	ret

0000000080001e9a <rt_components_board_init>:
    80001e9a:	1101                	addi	sp,sp,-32
    80001e9c:	ec06                	sd	ra,24(sp)
    80001e9e:	e822                	sd	s0,16(sp)
    80001ea0:	1000                	addi	s0,sp,32
    80001ea2:	00027797          	auipc	a5,0x27
    80001ea6:	81e78793          	addi	a5,a5,-2018 # 800286c0 <__rt_init_rti_board_start>
    80001eaa:	fef43423          	sd	a5,-24(s0)
    80001eae:	a811                	j	80001ec2 <rt_components_board_init+0x28>
    80001eb0:	fe843783          	ld	a5,-24(s0)
    80001eb4:	639c                	ld	a5,0(a5)
    80001eb6:	9782                	jalr	a5
    80001eb8:	fe843783          	ld	a5,-24(s0)
    80001ebc:	07a1                	addi	a5,a5,8
    80001ebe:	fef43423          	sd	a5,-24(s0)
    80001ec2:	fe843703          	ld	a4,-24(s0)
    80001ec6:	00027797          	auipc	a5,0x27
    80001eca:	81278793          	addi	a5,a5,-2030 # 800286d8 <__rt_init_rti_board_end>
    80001ece:	fef761e3          	bltu	a4,a5,80001eb0 <rt_components_board_init+0x16>
    80001ed2:	0001                	nop
    80001ed4:	60e2                	ld	ra,24(sp)
    80001ed6:	6442                	ld	s0,16(sp)
    80001ed8:	6105                	addi	sp,sp,32
    80001eda:	8082                	ret

0000000080001edc <rt_components_init>:
    80001edc:	1101                	addi	sp,sp,-32
    80001ede:	ec06                	sd	ra,24(sp)
    80001ee0:	e822                	sd	s0,16(sp)
    80001ee2:	1000                	addi	s0,sp,32
    80001ee4:	00026797          	auipc	a5,0x26
    80001ee8:	7f478793          	addi	a5,a5,2036 # 800286d8 <__rt_init_rti_board_end>
    80001eec:	fef43423          	sd	a5,-24(s0)
    80001ef0:	a811                	j	80001f04 <rt_components_init+0x28>
    80001ef2:	fe843783          	ld	a5,-24(s0)
    80001ef6:	639c                	ld	a5,0(a5)
    80001ef8:	9782                	jalr	a5
    80001efa:	fe843783          	ld	a5,-24(s0)
    80001efe:	07a1                	addi	a5,a5,8
    80001f00:	fef43423          	sd	a5,-24(s0)
    80001f04:	fe843703          	ld	a4,-24(s0)
    80001f08:	00027797          	auipc	a5,0x27
    80001f0c:	80878793          	addi	a5,a5,-2040 # 80028710 <__rt_init_rti_end>
    80001f10:	fef761e3          	bltu	a4,a5,80001ef2 <rt_components_init+0x16>
    80001f14:	0001                	nop
    80001f16:	60e2                	ld	ra,24(sp)
    80001f18:	6442                	ld	s0,16(sp)
    80001f1a:	6105                	addi	sp,sp,32
    80001f1c:	8082                	ret

0000000080001f1e <entry>:
    80001f1e:	1141                	addi	sp,sp,-16
    80001f20:	e406                	sd	ra,8(sp)
    80001f22:	e022                	sd	s0,0(sp)
    80001f24:	0800                	addi	s0,sp,16
    80001f26:	08a000ef          	jal	ra,80001fb0 <rtthread_startup>
    80001f2a:	4781                	li	a5,0
    80001f2c:	853e                	mv	a0,a5
    80001f2e:	60a2                	ld	ra,8(sp)
    80001f30:	6402                	ld	s0,0(sp)
    80001f32:	0141                	addi	sp,sp,16
    80001f34:	8082                	ret

0000000080001f36 <main_thread_entry>:
    80001f36:	1101                	addi	sp,sp,-32
    80001f38:	ec06                	sd	ra,24(sp)
    80001f3a:	e822                	sd	s0,16(sp)
    80001f3c:	1000                	addi	s0,sp,32
    80001f3e:	fea43423          	sd	a0,-24(s0)
    80001f42:	f9bff0ef          	jal	ra,80001edc <rt_components_init>
    80001f46:	45e060ef          	jal	ra,800083a4 <rt_hw_secondary_cpu_up>
    80001f4a:	c6afe0ef          	jal	ra,800003b4 <main>
    80001f4e:	0001                	nop
    80001f50:	60e2                	ld	ra,24(sp)
    80001f52:	6442                	ld	s0,16(sp)
    80001f54:	6105                	addi	sp,sp,32
    80001f56:	8082                	ret

0000000080001f58 <rt_application_init>:
    80001f58:	1101                	addi	sp,sp,-32
    80001f5a:	ec06                	sd	ra,24(sp)
    80001f5c:	e822                	sd	s0,16(sp)
    80001f5e:	1000                	addi	s0,sp,32
    80001f60:	47d1                	li	a5,20
    80001f62:	4729                	li	a4,10
    80001f64:	6689                	lui	a3,0x2
    80001f66:	4601                	li	a2,0
    80001f68:	00000597          	auipc	a1,0x0
    80001f6c:	fce58593          	addi	a1,a1,-50 # 80001f36 <main_thread_entry>
    80001f70:	00020517          	auipc	a0,0x20
    80001f74:	a3850513          	addi	a0,a0,-1480 # 800219a8 <__clzdi2+0x502>
    80001f78:	29c050ef          	jal	ra,80007214 <rt_thread_create>
    80001f7c:	fea43423          	sd	a0,-24(s0)
    80001f80:	fe843783          	ld	a5,-24(s0)
    80001f84:	ef89                	bnez	a5,80001f9e <rt_application_init+0x46>
    80001f86:	0c800613          	li	a2,200
    80001f8a:	00024597          	auipc	a1,0x24
    80001f8e:	f1e58593          	addi	a1,a1,-226 # 80025ea8 <__FUNCTION__.3207>
    80001f92:	00020517          	auipc	a0,0x20
    80001f96:	a1e50513          	addi	a0,a0,-1506 # 800219b0 <__clzdi2+0x50a>
    80001f9a:	39f020ef          	jal	ra,80004b38 <rt_assert_handler>
    80001f9e:	fe843503          	ld	a0,-24(s0)
    80001fa2:	1a2050ef          	jal	ra,80007144 <rt_thread_startup>
    80001fa6:	0001                	nop
    80001fa8:	60e2                	ld	ra,24(sp)
    80001faa:	6442                	ld	s0,16(sp)
    80001fac:	6105                	addi	sp,sp,32
    80001fae:	8082                	ret

0000000080001fb0 <rtthread_startup>:
    80001fb0:	1141                	addi	sp,sp,-16
    80001fb2:	e406                	sd	ra,8(sp)
    80001fb4:	e022                	sd	s0,0(sp)
    80001fb6:	0800                	addi	s0,sp,16
    80001fb8:	092000ef          	jal	ra,8000204a <rt_cpus_lock>
    80001fbc:	8f1fe0ef          	jal	ra,800008ac <rt_hw_board_init>
    80001fc0:	597010ef          	jal	ra,80003d56 <rt_show_version>
    80001fc4:	1bc060ef          	jal	ra,80008180 <rt_system_timer_init>
    80001fc8:	2ec030ef          	jal	ra,800052b4 <rt_system_scheduler_init>
    80001fcc:	f8dff0ef          	jal	ra,80001f58 <rt_application_init>
    80001fd0:	1f2060ef          	jal	ra,800081c2 <rt_system_timer_thread_init>
    80001fd4:	251000ef          	jal	ra,80002a24 <rt_thread_idle_init>
    80001fd8:	00029517          	auipc	a0,0x29
    80001fdc:	1f850513          	addi	a0,a0,504 # 8002b1d0 <_cpus_lock>
    80001fe0:	326060ef          	jal	ra,80008306 <rt_hw_spin_lock>
    80001fe4:	38a030ef          	jal	ra,8000536e <rt_system_scheduler_start>
    80001fe8:	4781                	li	a5,0
    80001fea:	853e                	mv	a0,a5
    80001fec:	60a2                	ld	ra,8(sp)
    80001fee:	6402                	ld	s0,0(sp)
    80001ff0:	0141                	addi	sp,sp,16
    80001ff2:	8082                	ret

0000000080001ff4 <rt_cpu_self>:
    80001ff4:	1141                	addi	sp,sp,-16
    80001ff6:	e406                	sd	ra,8(sp)
    80001ff8:	e022                	sd	s0,0(sp)
    80001ffa:	0800                	addi	s0,sp,16
    80001ffc:	2ee060ef          	jal	ra,800082ea <rt_hw_cpu_id>
    80002000:	87aa                	mv	a5,a0
    80002002:	873e                	mv	a4,a5
    80002004:	21800793          	li	a5,536
    80002008:	02f70733          	mul	a4,a4,a5
    8000200c:	0002a797          	auipc	a5,0x2a
    80002010:	87478793          	addi	a5,a5,-1932 # 8002b880 <rt_cpus>
    80002014:	97ba                	add	a5,a5,a4
    80002016:	853e                	mv	a0,a5
    80002018:	60a2                	ld	ra,8(sp)
    8000201a:	6402                	ld	s0,0(sp)
    8000201c:	0141                	addi	sp,sp,16
    8000201e:	8082                	ret

0000000080002020 <rt_cpu_index>:
    80002020:	1101                	addi	sp,sp,-32
    80002022:	ec22                	sd	s0,24(sp)
    80002024:	1000                	addi	s0,sp,32
    80002026:	87aa                	mv	a5,a0
    80002028:	fef42623          	sw	a5,-20(s0)
    8000202c:	fec42703          	lw	a4,-20(s0)
    80002030:	21800793          	li	a5,536
    80002034:	02f70733          	mul	a4,a4,a5
    80002038:	0002a797          	auipc	a5,0x2a
    8000203c:	84878793          	addi	a5,a5,-1976 # 8002b880 <rt_cpus>
    80002040:	97ba                	add	a5,a5,a4
    80002042:	853e                	mv	a0,a5
    80002044:	6462                	ld	s0,24(sp)
    80002046:	6105                	addi	sp,sp,32
    80002048:	8082                	ret

000000008000204a <rt_cpus_lock>:
    8000204a:	7179                	addi	sp,sp,-48
    8000204c:	f406                	sd	ra,40(sp)
    8000204e:	f022                	sd	s0,32(sp)
    80002050:	ec26                	sd	s1,24(sp)
    80002052:	1800                	addi	s0,sp,48
    80002054:	8ecfe0ef          	jal	ra,80000140 <rt_hw_local_irq_disable>
    80002058:	fca43c23          	sd	a0,-40(s0)
    8000205c:	f99ff0ef          	jal	ra,80001ff4 <rt_cpu_self>
    80002060:	fca43823          	sd	a0,-48(s0)
    80002064:	fd043783          	ld	a5,-48(s0)
    80002068:	639c                	ld	a5,0(a5)
    8000206a:	c3b1                	beqz	a5,800020ae <rt_cpus_lock+0x64>
    8000206c:	fd043783          	ld	a5,-48(s0)
    80002070:	639c                	ld	a5,0(a5)
    80002072:	0667d783          	lhu	a5,102(a5)
    80002076:	84be                	mv	s1,a5
    80002078:	fd043783          	ld	a5,-48(s0)
    8000207c:	639c                	ld	a5,0(a5)
    8000207e:	0667d703          	lhu	a4,102(a5)
    80002082:	2705                	addiw	a4,a4,1
    80002084:	1742                	slli	a4,a4,0x30
    80002086:	9341                	srli	a4,a4,0x30
    80002088:	06e79323          	sh	a4,102(a5)
    8000208c:	e08d                	bnez	s1,800020ae <rt_cpus_lock+0x64>
    8000208e:	fd043783          	ld	a5,-48(s0)
    80002092:	639c                	ld	a5,0(a5)
    80002094:	0647d703          	lhu	a4,100(a5)
    80002098:	2705                	addiw	a4,a4,1
    8000209a:	1742                	slli	a4,a4,0x30
    8000209c:	9341                	srli	a4,a4,0x30
    8000209e:	06e79223          	sh	a4,100(a5)
    800020a2:	00029517          	auipc	a0,0x29
    800020a6:	12e50513          	addi	a0,a0,302 # 8002b1d0 <_cpus_lock>
    800020aa:	25c060ef          	jal	ra,80008306 <rt_hw_spin_lock>
    800020ae:	fd843783          	ld	a5,-40(s0)
    800020b2:	853e                	mv	a0,a5
    800020b4:	70a2                	ld	ra,40(sp)
    800020b6:	7402                	ld	s0,32(sp)
    800020b8:	64e2                	ld	s1,24(sp)
    800020ba:	6145                	addi	sp,sp,48
    800020bc:	8082                	ret

00000000800020be <rt_cpus_unlock>:
    800020be:	7179                	addi	sp,sp,-48
    800020c0:	f406                	sd	ra,40(sp)
    800020c2:	f022                	sd	s0,32(sp)
    800020c4:	1800                	addi	s0,sp,48
    800020c6:	fca43c23          	sd	a0,-40(s0)
    800020ca:	f2bff0ef          	jal	ra,80001ff4 <rt_cpu_self>
    800020ce:	fea43423          	sd	a0,-24(s0)
    800020d2:	fe843783          	ld	a5,-24(s0)
    800020d6:	639c                	ld	a5,0(a5)
    800020d8:	c3a9                	beqz	a5,8000211a <rt_cpus_unlock+0x5c>
    800020da:	fe843783          	ld	a5,-24(s0)
    800020de:	639c                	ld	a5,0(a5)
    800020e0:	0667d703          	lhu	a4,102(a5)
    800020e4:	377d                	addiw	a4,a4,-1
    800020e6:	1742                	slli	a4,a4,0x30
    800020e8:	9341                	srli	a4,a4,0x30
    800020ea:	06e79323          	sh	a4,102(a5)
    800020ee:	fe843783          	ld	a5,-24(s0)
    800020f2:	639c                	ld	a5,0(a5)
    800020f4:	0667d783          	lhu	a5,102(a5)
    800020f8:	e38d                	bnez	a5,8000211a <rt_cpus_unlock+0x5c>
    800020fa:	fe843783          	ld	a5,-24(s0)
    800020fe:	639c                	ld	a5,0(a5)
    80002100:	0647d703          	lhu	a4,100(a5)
    80002104:	377d                	addiw	a4,a4,-1
    80002106:	1742                	slli	a4,a4,0x30
    80002108:	9341                	srli	a4,a4,0x30
    8000210a:	06e79223          	sh	a4,100(a5)
    8000210e:	00029517          	auipc	a0,0x29
    80002112:	0c250513          	addi	a0,a0,194 # 8002b1d0 <_cpus_lock>
    80002116:	20e060ef          	jal	ra,80008324 <rt_hw_spin_unlock>
    8000211a:	fd843503          	ld	a0,-40(s0)
    8000211e:	828fe0ef          	jal	ra,80000146 <rt_hw_local_irq_enable>
    80002122:	0001                	nop
    80002124:	70a2                	ld	ra,40(sp)
    80002126:	7402                	ld	s0,32(sp)
    80002128:	6145                	addi	sp,sp,48
    8000212a:	8082                	ret

000000008000212c <rt_cpus_lock_status_restore>:
    8000212c:	7179                	addi	sp,sp,-48
    8000212e:	f406                	sd	ra,40(sp)
    80002130:	f022                	sd	s0,32(sp)
    80002132:	1800                	addi	s0,sp,48
    80002134:	fca43c23          	sd	a0,-40(s0)
    80002138:	ebdff0ef          	jal	ra,80001ff4 <rt_cpu_self>
    8000213c:	fea43423          	sd	a0,-24(s0)
    80002140:	fe843783          	ld	a5,-24(s0)
    80002144:	fd843703          	ld	a4,-40(s0)
    80002148:	e398                	sd	a4,0(a5)
    8000214a:	fd843783          	ld	a5,-40(s0)
    8000214e:	0667d783          	lhu	a5,102(a5)
    80002152:	e799                	bnez	a5,80002160 <rt_cpus_lock_status_restore+0x34>
    80002154:	00029517          	auipc	a0,0x29
    80002158:	07c50513          	addi	a0,a0,124 # 8002b1d0 <_cpus_lock>
    8000215c:	1c8060ef          	jal	ra,80008324 <rt_hw_spin_unlock>
    80002160:	0001                	nop
    80002162:	70a2                	ld	ra,40(sp)
    80002164:	7402                	ld	s0,32(sp)
    80002166:	6145                	addi	sp,sp,48
    80002168:	8082                	ret

000000008000216a <rt_list_init>:
    8000216a:	1101                	addi	sp,sp,-32
    8000216c:	ec22                	sd	s0,24(sp)
    8000216e:	1000                	addi	s0,sp,32
    80002170:	fea43423          	sd	a0,-24(s0)
    80002174:	fe843783          	ld	a5,-24(s0)
    80002178:	fe843703          	ld	a4,-24(s0)
    8000217c:	e798                	sd	a4,8(a5)
    8000217e:	fe843783          	ld	a5,-24(s0)
    80002182:	6798                	ld	a4,8(a5)
    80002184:	fe843783          	ld	a5,-24(s0)
    80002188:	e398                	sd	a4,0(a5)
    8000218a:	0001                	nop
    8000218c:	6462                	ld	s0,24(sp)
    8000218e:	6105                	addi	sp,sp,32
    80002190:	8082                	ret

0000000080002192 <rt_wqueue_init>:
    80002192:	1101                	addi	sp,sp,-32
    80002194:	ec06                	sd	ra,24(sp)
    80002196:	e822                	sd	s0,16(sp)
    80002198:	1000                	addi	s0,sp,32
    8000219a:	fea43423          	sd	a0,-24(s0)
    8000219e:	fe843783          	ld	a5,-24(s0)
    800021a2:	ef89                	bnez	a5,800021bc <rt_wqueue_init+0x2a>
    800021a4:	02500613          	li	a2,37
    800021a8:	00024597          	auipc	a1,0x24
    800021ac:	d1858593          	addi	a1,a1,-744 # 80025ec0 <__FUNCTION__.3219>
    800021b0:	00020517          	auipc	a0,0x20
    800021b4:	81050513          	addi	a0,a0,-2032 # 800219c0 <__clzdi2+0x51a>
    800021b8:	181020ef          	jal	ra,80004b38 <rt_assert_handler>
    800021bc:	fe843783          	ld	a5,-24(s0)
    800021c0:	0007a023          	sw	zero,0(a5)
    800021c4:	fe843783          	ld	a5,-24(s0)
    800021c8:	07a1                	addi	a5,a5,8
    800021ca:	853e                	mv	a0,a5
    800021cc:	f9fff0ef          	jal	ra,8000216a <rt_list_init>
    800021d0:	0001                	nop
    800021d2:	60e2                	ld	ra,24(sp)
    800021d4:	6442                	ld	s0,16(sp)
    800021d6:	6105                	addi	sp,sp,32
    800021d8:	8082                	ret

00000000800021da <rt_device_register>:
    800021da:	7179                	addi	sp,sp,-48
    800021dc:	f406                	sd	ra,40(sp)
    800021de:	f022                	sd	s0,32(sp)
    800021e0:	1800                	addi	s0,sp,48
    800021e2:	fea43423          	sd	a0,-24(s0)
    800021e6:	feb43023          	sd	a1,-32(s0)
    800021ea:	87b2                	mv	a5,a2
    800021ec:	fcf41f23          	sh	a5,-34(s0)
    800021f0:	fe843783          	ld	a5,-24(s0)
    800021f4:	e399                	bnez	a5,800021fa <rt_device_register+0x20>
    800021f6:	57fd                	li	a5,-1
    800021f8:	a899                	j	8000224e <rt_device_register+0x74>
    800021fa:	fe043503          	ld	a0,-32(s0)
    800021fe:	05a000ef          	jal	ra,80002258 <rt_device_find>
    80002202:	87aa                	mv	a5,a0
    80002204:	c399                	beqz	a5,8000220a <rt_device_register+0x30>
    80002206:	57fd                	li	a5,-1
    80002208:	a099                	j	8000224e <rt_device_register+0x74>
    8000220a:	fe843783          	ld	a5,-24(s0)
    8000220e:	fe043603          	ld	a2,-32(s0)
    80002212:	45a5                	li	a1,9
    80002214:	853e                	mv	a0,a5
    80002216:	279020ef          	jal	ra,80004c8e <rt_object_init>
    8000221a:	fe843783          	ld	a5,-24(s0)
    8000221e:	fde45703          	lhu	a4,-34(s0)
    80002222:	02e79223          	sh	a4,36(a5)
    80002226:	fe843783          	ld	a5,-24(s0)
    8000222a:	02078423          	sb	zero,40(a5)
    8000222e:	fe843783          	ld	a5,-24(s0)
    80002232:	02079323          	sh	zero,38(a5)
    80002236:	fe843783          	ld	a5,-24(s0)
    8000223a:	0607b823          	sd	zero,112(a5)
    8000223e:	fe843783          	ld	a5,-24(s0)
    80002242:	07878793          	addi	a5,a5,120
    80002246:	853e                	mv	a0,a5
    80002248:	f4bff0ef          	jal	ra,80002192 <rt_wqueue_init>
    8000224c:	4781                	li	a5,0
    8000224e:	853e                	mv	a0,a5
    80002250:	70a2                	ld	ra,40(sp)
    80002252:	7402                	ld	s0,32(sp)
    80002254:	6145                	addi	sp,sp,48
    80002256:	8082                	ret

0000000080002258 <rt_device_find>:
    80002258:	7139                	addi	sp,sp,-64
    8000225a:	fc06                	sd	ra,56(sp)
    8000225c:	f822                	sd	s0,48(sp)
    8000225e:	0080                	addi	s0,sp,64
    80002260:	fca43423          	sd	a0,-56(s0)
    80002264:	6af040ef          	jal	ra,80007112 <rt_thread_self>
    80002268:	87aa                	mv	a5,a0
    8000226a:	c399                	beqz	a5,80002270 <rt_device_find+0x18>
    8000226c:	7f2030ef          	jal	ra,80005a5e <rt_enter_critical>
    80002270:	4525                	li	a0,9
    80002272:	1b9020ef          	jal	ra,80004c2a <rt_object_get_information>
    80002276:	fea43023          	sd	a0,-32(s0)
    8000227a:	fe043783          	ld	a5,-32(s0)
    8000227e:	ef89                	bnez	a5,80002298 <rt_device_find+0x40>
    80002280:	07c00613          	li	a2,124
    80002284:	00024597          	auipc	a1,0x24
    80002288:	c4c58593          	addi	a1,a1,-948 # 80025ed0 <__FUNCTION__.3460>
    8000228c:	0001f517          	auipc	a0,0x1f
    80002290:	7c450513          	addi	a0,a0,1988 # 80021a50 <__clzdi2+0x5aa>
    80002294:	0a5020ef          	jal	ra,80004b38 <rt_assert_handler>
    80002298:	fe043783          	ld	a5,-32(s0)
    8000229c:	679c                	ld	a5,8(a5)
    8000229e:	fef43423          	sd	a5,-24(s0)
    800022a2:	a835                	j	800022de <rt_device_find+0x86>
    800022a4:	fe843783          	ld	a5,-24(s0)
    800022a8:	17c1                	addi	a5,a5,-16
    800022aa:	fcf43c23          	sd	a5,-40(s0)
    800022ae:	fd843783          	ld	a5,-40(s0)
    800022b2:	4631                	li	a2,12
    800022b4:	fc843583          	ld	a1,-56(s0)
    800022b8:	853e                	mv	a0,a5
    800022ba:	19f010ef          	jal	ra,80003c58 <rt_strncmp>
    800022be:	87aa                	mv	a5,a0
    800022c0:	eb91                	bnez	a5,800022d4 <rt_device_find+0x7c>
    800022c2:	651040ef          	jal	ra,80007112 <rt_thread_self>
    800022c6:	87aa                	mv	a5,a0
    800022c8:	c399                	beqz	a5,800022ce <rt_device_find+0x76>
    800022ca:	015030ef          	jal	ra,80005ade <rt_exit_critical>
    800022ce:	fd843783          	ld	a5,-40(s0)
    800022d2:	a025                	j	800022fa <rt_device_find+0xa2>
    800022d4:	fe843783          	ld	a5,-24(s0)
    800022d8:	639c                	ld	a5,0(a5)
    800022da:	fef43423          	sd	a5,-24(s0)
    800022de:	fe043783          	ld	a5,-32(s0)
    800022e2:	07a1                	addi	a5,a5,8
    800022e4:	fe843703          	ld	a4,-24(s0)
    800022e8:	faf71ee3          	bne	a4,a5,800022a4 <rt_device_find+0x4c>
    800022ec:	627040ef          	jal	ra,80007112 <rt_thread_self>
    800022f0:	87aa                	mv	a5,a0
    800022f2:	c399                	beqz	a5,800022f8 <rt_device_find+0xa0>
    800022f4:	7ea030ef          	jal	ra,80005ade <rt_exit_critical>
    800022f8:	4781                	li	a5,0
    800022fa:	853e                	mv	a0,a5
    800022fc:	70e2                	ld	ra,56(sp)
    800022fe:	7442                	ld	s0,48(sp)
    80002300:	6121                	addi	sp,sp,64
    80002302:	8082                	ret

0000000080002304 <rt_device_init>:
    80002304:	7179                	addi	sp,sp,-48
    80002306:	f406                	sd	ra,40(sp)
    80002308:	f022                	sd	s0,32(sp)
    8000230a:	1800                	addi	s0,sp,48
    8000230c:	fca43c23          	sd	a0,-40(s0)
    80002310:	fe043423          	sd	zero,-24(s0)
    80002314:	fd843783          	ld	a5,-40(s0)
    80002318:	ef89                	bnez	a5,80002332 <rt_device_init+0x2e>
    8000231a:	0d100613          	li	a2,209
    8000231e:	00024597          	auipc	a1,0x24
    80002322:	bc258593          	addi	a1,a1,-1086 # 80025ee0 <__FUNCTION__.3478>
    80002326:	0001f517          	auipc	a0,0x1f
    8000232a:	6b250513          	addi	a0,a0,1714 # 800219d8 <__clzdi2+0x532>
    8000232e:	00b020ef          	jal	ra,80004b38 <rt_assert_handler>
    80002332:	fd843783          	ld	a5,-40(s0)
    80002336:	63bc                	ld	a5,64(a5)
    80002338:	cfa9                	beqz	a5,80002392 <rt_device_init+0x8e>
    8000233a:	fd843783          	ld	a5,-40(s0)
    8000233e:	0247d783          	lhu	a5,36(a5)
    80002342:	2781                	sext.w	a5,a5
    80002344:	8bc1                	andi	a5,a5,16
    80002346:	2781                	sext.w	a5,a5
    80002348:	e7a9                	bnez	a5,80002392 <rt_device_init+0x8e>
    8000234a:	fd843783          	ld	a5,-40(s0)
    8000234e:	63bc                	ld	a5,64(a5)
    80002350:	fd843503          	ld	a0,-40(s0)
    80002354:	9782                	jalr	a5
    80002356:	fea43423          	sd	a0,-24(s0)
    8000235a:	fe843783          	ld	a5,-24(s0)
    8000235e:	cf89                	beqz	a5,80002378 <rt_device_init+0x74>
    80002360:	fd843783          	ld	a5,-40(s0)
    80002364:	fe843603          	ld	a2,-24(s0)
    80002368:	85be                	mv	a1,a5
    8000236a:	0001f517          	auipc	a0,0x1f
    8000236e:	73650513          	addi	a0,a0,1846 # 80021aa0 <__clzdi2+0x5fa>
    80002372:	606020ef          	jal	ra,80004978 <rt_kprintf>
    80002376:	a831                	j	80002392 <rt_device_init+0x8e>
    80002378:	fd843783          	ld	a5,-40(s0)
    8000237c:	0247d783          	lhu	a5,36(a5)
    80002380:	0107e793          	ori	a5,a5,16
    80002384:	03079713          	slli	a4,a5,0x30
    80002388:	9341                	srli	a4,a4,0x30
    8000238a:	fd843783          	ld	a5,-40(s0)
    8000238e:	02e79223          	sh	a4,36(a5)
    80002392:	fe843783          	ld	a5,-24(s0)
    80002396:	853e                	mv	a0,a5
    80002398:	70a2                	ld	ra,40(sp)
    8000239a:	7402                	ld	s0,32(sp)
    8000239c:	6145                	addi	sp,sp,48
    8000239e:	8082                	ret

00000000800023a0 <rt_device_open>:
    800023a0:	7179                	addi	sp,sp,-48
    800023a2:	f406                	sd	ra,40(sp)
    800023a4:	f022                	sd	s0,32(sp)
    800023a6:	1800                	addi	s0,sp,48
    800023a8:	fca43c23          	sd	a0,-40(s0)
    800023ac:	87ae                	mv	a5,a1
    800023ae:	fcf41b23          	sh	a5,-42(s0)
    800023b2:	fe043423          	sd	zero,-24(s0)
    800023b6:	fd843783          	ld	a5,-40(s0)
    800023ba:	ef89                	bnez	a5,800023d4 <rt_device_open+0x34>
    800023bc:	0f400613          	li	a2,244
    800023c0:	00024597          	auipc	a1,0x24
    800023c4:	b3058593          	addi	a1,a1,-1232 # 80025ef0 <__FUNCTION__.3484>
    800023c8:	0001f517          	auipc	a0,0x1f
    800023cc:	61050513          	addi	a0,a0,1552 # 800219d8 <__clzdi2+0x532>
    800023d0:	768020ef          	jal	ra,80004b38 <rt_assert_handler>
    800023d4:	fd843783          	ld	a5,-40(s0)
    800023d8:	853e                	mv	a0,a5
    800023da:	45f020ef          	jal	ra,80005038 <rt_object_get_type>
    800023de:	87aa                	mv	a5,a0
    800023e0:	873e                	mv	a4,a5
    800023e2:	47a5                	li	a5,9
    800023e4:	00f70e63          	beq	a4,a5,80002400 <rt_device_open+0x60>
    800023e8:	0f500613          	li	a2,245
    800023ec:	00024597          	auipc	a1,0x24
    800023f0:	b0458593          	addi	a1,a1,-1276 # 80025ef0 <__FUNCTION__.3484>
    800023f4:	0001f517          	auipc	a0,0x1f
    800023f8:	5f450513          	addi	a0,a0,1524 # 800219e8 <__clzdi2+0x542>
    800023fc:	73c020ef          	jal	ra,80004b38 <rt_assert_handler>
    80002400:	fd843783          	ld	a5,-40(s0)
    80002404:	0247d783          	lhu	a5,36(a5)
    80002408:	2781                	sext.w	a5,a5
    8000240a:	8bc1                	andi	a5,a5,16
    8000240c:	2781                	sext.w	a5,a5
    8000240e:	ebb9                	bnez	a5,80002464 <rt_device_open+0xc4>
    80002410:	fd843783          	ld	a5,-40(s0)
    80002414:	63bc                	ld	a5,64(a5)
    80002416:	cb95                	beqz	a5,8000244a <rt_device_open+0xaa>
    80002418:	fd843783          	ld	a5,-40(s0)
    8000241c:	63bc                	ld	a5,64(a5)
    8000241e:	fd843503          	ld	a0,-40(s0)
    80002422:	9782                	jalr	a5
    80002424:	fea43423          	sd	a0,-24(s0)
    80002428:	fe843783          	ld	a5,-24(s0)
    8000242c:	cf99                	beqz	a5,8000244a <rt_device_open+0xaa>
    8000242e:	fd843783          	ld	a5,-40(s0)
    80002432:	fe843603          	ld	a2,-24(s0)
    80002436:	85be                	mv	a1,a5
    80002438:	0001f517          	auipc	a0,0x1f
    8000243c:	66850513          	addi	a0,a0,1640 # 80021aa0 <__clzdi2+0x5fa>
    80002440:	538020ef          	jal	ra,80004978 <rt_kprintf>
    80002444:	fe843783          	ld	a5,-24(s0)
    80002448:	a0c5                	j	80002528 <rt_device_open+0x188>
    8000244a:	fd843783          	ld	a5,-40(s0)
    8000244e:	0247d783          	lhu	a5,36(a5)
    80002452:	0107e793          	ori	a5,a5,16
    80002456:	03079713          	slli	a4,a5,0x30
    8000245a:	9341                	srli	a4,a4,0x30
    8000245c:	fd843783          	ld	a5,-40(s0)
    80002460:	02e79223          	sh	a4,36(a5)
    80002464:	fd843783          	ld	a5,-40(s0)
    80002468:	0247d783          	lhu	a5,36(a5)
    8000246c:	2781                	sext.w	a5,a5
    8000246e:	8ba1                	andi	a5,a5,8
    80002470:	2781                	sext.w	a5,a5
    80002472:	cb99                	beqz	a5,80002488 <rt_device_open+0xe8>
    80002474:	fd843783          	ld	a5,-40(s0)
    80002478:	0267d783          	lhu	a5,38(a5)
    8000247c:	2781                	sext.w	a5,a5
    8000247e:	8ba1                	andi	a5,a5,8
    80002480:	2781                	sext.w	a5,a5
    80002482:	c399                	beqz	a5,80002488 <rt_device_open+0xe8>
    80002484:	57e5                	li	a5,-7
    80002486:	a04d                	j	80002528 <rt_device_open+0x188>
    80002488:	fd843783          	ld	a5,-40(s0)
    8000248c:	67bc                	ld	a5,72(a5)
    8000248e:	cf89                	beqz	a5,800024a8 <rt_device_open+0x108>
    80002490:	fd843783          	ld	a5,-40(s0)
    80002494:	67b8                	ld	a4,72(a5)
    80002496:	fd645783          	lhu	a5,-42(s0)
    8000249a:	85be                	mv	a1,a5
    8000249c:	fd843503          	ld	a0,-40(s0)
    800024a0:	9702                	jalr	a4
    800024a2:	fea43423          	sd	a0,-24(s0)
    800024a6:	a831                	j	800024c2 <rt_device_open+0x122>
    800024a8:	fd645703          	lhu	a4,-42(s0)
    800024ac:	6785                	lui	a5,0x1
    800024ae:	f0f78793          	addi	a5,a5,-241 # f0f <__STACKSIZE__-0xf1>
    800024b2:	8ff9                	and	a5,a5,a4
    800024b4:	03079713          	slli	a4,a5,0x30
    800024b8:	9341                	srli	a4,a4,0x30
    800024ba:	fd843783          	ld	a5,-40(s0)
    800024be:	02e79323          	sh	a4,38(a5)
    800024c2:	fe843783          	ld	a5,-24(s0)
    800024c6:	c791                	beqz	a5,800024d2 <rt_device_open+0x132>
    800024c8:	fe843703          	ld	a4,-24(s0)
    800024cc:	57e9                	li	a5,-6
    800024ce:	04f71b63          	bne	a4,a5,80002524 <rt_device_open+0x184>
    800024d2:	fd843783          	ld	a5,-40(s0)
    800024d6:	0267d783          	lhu	a5,38(a5)
    800024da:	0087e793          	ori	a5,a5,8
    800024de:	03079713          	slli	a4,a5,0x30
    800024e2:	9341                	srli	a4,a4,0x30
    800024e4:	fd843783          	ld	a5,-40(s0)
    800024e8:	02e79323          	sh	a4,38(a5)
    800024ec:	fd843783          	ld	a5,-40(s0)
    800024f0:	0287c783          	lbu	a5,40(a5)
    800024f4:	2785                	addiw	a5,a5,1
    800024f6:	0ff7f713          	andi	a4,a5,255
    800024fa:	fd843783          	ld	a5,-40(s0)
    800024fe:	02e78423          	sb	a4,40(a5)
    80002502:	fd843783          	ld	a5,-40(s0)
    80002506:	0287c783          	lbu	a5,40(a5)
    8000250a:	ef89                	bnez	a5,80002524 <rt_device_open+0x184>
    8000250c:	12300613          	li	a2,291
    80002510:	00024597          	auipc	a1,0x24
    80002514:	9e058593          	addi	a1,a1,-1568 # 80025ef0 <__FUNCTION__.3484>
    80002518:	0001f517          	auipc	a0,0x1f
    8000251c:	5c050513          	addi	a0,a0,1472 # 80021ad8 <__clzdi2+0x632>
    80002520:	618020ef          	jal	ra,80004b38 <rt_assert_handler>
    80002524:	fe843783          	ld	a5,-24(s0)
    80002528:	853e                	mv	a0,a5
    8000252a:	70a2                	ld	ra,40(sp)
    8000252c:	7402                	ld	s0,32(sp)
    8000252e:	6145                	addi	sp,sp,48
    80002530:	8082                	ret

0000000080002532 <rt_device_close>:
    80002532:	7179                	addi	sp,sp,-48
    80002534:	f406                	sd	ra,40(sp)
    80002536:	f022                	sd	s0,32(sp)
    80002538:	1800                	addi	s0,sp,48
    8000253a:	fca43c23          	sd	a0,-40(s0)
    8000253e:	fe043423          	sd	zero,-24(s0)
    80002542:	fd843783          	ld	a5,-40(s0)
    80002546:	ef89                	bnez	a5,80002560 <rt_device_close+0x2e>
    80002548:	13500613          	li	a2,309
    8000254c:	00024597          	auipc	a1,0x24
    80002550:	9b458593          	addi	a1,a1,-1612 # 80025f00 <__FUNCTION__.3489>
    80002554:	0001f517          	auipc	a0,0x1f
    80002558:	48450513          	addi	a0,a0,1156 # 800219d8 <__clzdi2+0x532>
    8000255c:	5dc020ef          	jal	ra,80004b38 <rt_assert_handler>
    80002560:	fd843783          	ld	a5,-40(s0)
    80002564:	853e                	mv	a0,a5
    80002566:	2d3020ef          	jal	ra,80005038 <rt_object_get_type>
    8000256a:	87aa                	mv	a5,a0
    8000256c:	873e                	mv	a4,a5
    8000256e:	47a5                	li	a5,9
    80002570:	00f70e63          	beq	a4,a5,8000258c <rt_device_close+0x5a>
    80002574:	13600613          	li	a2,310
    80002578:	00024597          	auipc	a1,0x24
    8000257c:	98858593          	addi	a1,a1,-1656 # 80025f00 <__FUNCTION__.3489>
    80002580:	0001f517          	auipc	a0,0x1f
    80002584:	46850513          	addi	a0,a0,1128 # 800219e8 <__clzdi2+0x542>
    80002588:	5b0020ef          	jal	ra,80004b38 <rt_assert_handler>
    8000258c:	fd843783          	ld	a5,-40(s0)
    80002590:	0287c783          	lbu	a5,40(a5)
    80002594:	e399                	bnez	a5,8000259a <rt_device_close+0x68>
    80002596:	57fd                	li	a5,-1
    80002598:	a8a9                	j	800025f2 <rt_device_close+0xc0>
    8000259a:	fd843783          	ld	a5,-40(s0)
    8000259e:	0287c783          	lbu	a5,40(a5)
    800025a2:	37fd                	addiw	a5,a5,-1
    800025a4:	0ff7f713          	andi	a4,a5,255
    800025a8:	fd843783          	ld	a5,-40(s0)
    800025ac:	02e78423          	sb	a4,40(a5)
    800025b0:	fd843783          	ld	a5,-40(s0)
    800025b4:	0287c783          	lbu	a5,40(a5)
    800025b8:	c399                	beqz	a5,800025be <rt_device_close+0x8c>
    800025ba:	4781                	li	a5,0
    800025bc:	a81d                	j	800025f2 <rt_device_close+0xc0>
    800025be:	fd843783          	ld	a5,-40(s0)
    800025c2:	6bbc                	ld	a5,80(a5)
    800025c4:	cb89                	beqz	a5,800025d6 <rt_device_close+0xa4>
    800025c6:	fd843783          	ld	a5,-40(s0)
    800025ca:	6bbc                	ld	a5,80(a5)
    800025cc:	fd843503          	ld	a0,-40(s0)
    800025d0:	9782                	jalr	a5
    800025d2:	fea43423          	sd	a0,-24(s0)
    800025d6:	fe843783          	ld	a5,-24(s0)
    800025da:	c791                	beqz	a5,800025e6 <rt_device_close+0xb4>
    800025dc:	fe843703          	ld	a4,-24(s0)
    800025e0:	57e9                	li	a5,-6
    800025e2:	00f71663          	bne	a4,a5,800025ee <rt_device_close+0xbc>
    800025e6:	fd843783          	ld	a5,-40(s0)
    800025ea:	02079323          	sh	zero,38(a5)
    800025ee:	fe843783          	ld	a5,-24(s0)
    800025f2:	853e                	mv	a0,a5
    800025f4:	70a2                	ld	ra,40(sp)
    800025f6:	7402                	ld	s0,32(sp)
    800025f8:	6145                	addi	sp,sp,48
    800025fa:	8082                	ret

00000000800025fc <rt_device_read>:
    800025fc:	7179                	addi	sp,sp,-48
    800025fe:	f406                	sd	ra,40(sp)
    80002600:	f022                	sd	s0,32(sp)
    80002602:	1800                	addi	s0,sp,48
    80002604:	fea43423          	sd	a0,-24(s0)
    80002608:	feb43023          	sd	a1,-32(s0)
    8000260c:	fcc43c23          	sd	a2,-40(s0)
    80002610:	fcd43823          	sd	a3,-48(s0)
    80002614:	fe843783          	ld	a5,-24(s0)
    80002618:	ef89                	bnez	a5,80002632 <rt_device_read+0x36>
    8000261a:	15f00613          	li	a2,351
    8000261e:	00024597          	auipc	a1,0x24
    80002622:	8f258593          	addi	a1,a1,-1806 # 80025f10 <__FUNCTION__.3496>
    80002626:	0001f517          	auipc	a0,0x1f
    8000262a:	3b250513          	addi	a0,a0,946 # 800219d8 <__clzdi2+0x532>
    8000262e:	50a020ef          	jal	ra,80004b38 <rt_assert_handler>
    80002632:	fe843783          	ld	a5,-24(s0)
    80002636:	853e                	mv	a0,a5
    80002638:	201020ef          	jal	ra,80005038 <rt_object_get_type>
    8000263c:	87aa                	mv	a5,a0
    8000263e:	873e                	mv	a4,a5
    80002640:	47a5                	li	a5,9
    80002642:	00f70e63          	beq	a4,a5,8000265e <rt_device_read+0x62>
    80002646:	16000613          	li	a2,352
    8000264a:	00024597          	auipc	a1,0x24
    8000264e:	8c658593          	addi	a1,a1,-1850 # 80025f10 <__FUNCTION__.3496>
    80002652:	0001f517          	auipc	a0,0x1f
    80002656:	39650513          	addi	a0,a0,918 # 800219e8 <__clzdi2+0x542>
    8000265a:	4de020ef          	jal	ra,80004b38 <rt_assert_handler>
    8000265e:	fe843783          	ld	a5,-24(s0)
    80002662:	0287c783          	lbu	a5,40(a5)
    80002666:	e791                	bnez	a5,80002672 <rt_device_read+0x76>
    80002668:	557d                	li	a0,-1
    8000266a:	15a010ef          	jal	ra,800037c4 <rt_set_errno>
    8000266e:	4781                	li	a5,0
    80002670:	a03d                	j	8000269e <rt_device_read+0xa2>
    80002672:	fe843783          	ld	a5,-24(s0)
    80002676:	6fbc                	ld	a5,88(a5)
    80002678:	cf99                	beqz	a5,80002696 <rt_device_read+0x9a>
    8000267a:	fe843783          	ld	a5,-24(s0)
    8000267e:	6fbc                	ld	a5,88(a5)
    80002680:	fd043683          	ld	a3,-48(s0)
    80002684:	fd843603          	ld	a2,-40(s0)
    80002688:	fe043583          	ld	a1,-32(s0)
    8000268c:	fe843503          	ld	a0,-24(s0)
    80002690:	9782                	jalr	a5
    80002692:	87aa                	mv	a5,a0
    80002694:	a029                	j	8000269e <rt_device_read+0xa2>
    80002696:	5569                	li	a0,-6
    80002698:	12c010ef          	jal	ra,800037c4 <rt_set_errno>
    8000269c:	4781                	li	a5,0
    8000269e:	853e                	mv	a0,a5
    800026a0:	70a2                	ld	ra,40(sp)
    800026a2:	7402                	ld	s0,32(sp)
    800026a4:	6145                	addi	sp,sp,48
    800026a6:	8082                	ret

00000000800026a8 <rt_device_write>:
    800026a8:	7179                	addi	sp,sp,-48
    800026aa:	f406                	sd	ra,40(sp)
    800026ac:	f022                	sd	s0,32(sp)
    800026ae:	1800                	addi	s0,sp,48
    800026b0:	fea43423          	sd	a0,-24(s0)
    800026b4:	feb43023          	sd	a1,-32(s0)
    800026b8:	fcc43c23          	sd	a2,-40(s0)
    800026bc:	fcd43823          	sd	a3,-48(s0)
    800026c0:	fe843783          	ld	a5,-24(s0)
    800026c4:	ef89                	bnez	a5,800026de <rt_device_write+0x36>
    800026c6:	18600613          	li	a2,390
    800026ca:	00024597          	auipc	a1,0x24
    800026ce:	85658593          	addi	a1,a1,-1962 # 80025f20 <__FUNCTION__.3503>
    800026d2:	0001f517          	auipc	a0,0x1f
    800026d6:	30650513          	addi	a0,a0,774 # 800219d8 <__clzdi2+0x532>
    800026da:	45e020ef          	jal	ra,80004b38 <rt_assert_handler>
    800026de:	fe843783          	ld	a5,-24(s0)
    800026e2:	853e                	mv	a0,a5
    800026e4:	155020ef          	jal	ra,80005038 <rt_object_get_type>
    800026e8:	87aa                	mv	a5,a0
    800026ea:	873e                	mv	a4,a5
    800026ec:	47a5                	li	a5,9
    800026ee:	00f70e63          	beq	a4,a5,8000270a <rt_device_write+0x62>
    800026f2:	18700613          	li	a2,391
    800026f6:	00024597          	auipc	a1,0x24
    800026fa:	82a58593          	addi	a1,a1,-2006 # 80025f20 <__FUNCTION__.3503>
    800026fe:	0001f517          	auipc	a0,0x1f
    80002702:	2ea50513          	addi	a0,a0,746 # 800219e8 <__clzdi2+0x542>
    80002706:	432020ef          	jal	ra,80004b38 <rt_assert_handler>
    8000270a:	fe843783          	ld	a5,-24(s0)
    8000270e:	0287c783          	lbu	a5,40(a5)
    80002712:	e791                	bnez	a5,8000271e <rt_device_write+0x76>
    80002714:	557d                	li	a0,-1
    80002716:	0ae010ef          	jal	ra,800037c4 <rt_set_errno>
    8000271a:	4781                	li	a5,0
    8000271c:	a03d                	j	8000274a <rt_device_write+0xa2>
    8000271e:	fe843783          	ld	a5,-24(s0)
    80002722:	73bc                	ld	a5,96(a5)
    80002724:	cf99                	beqz	a5,80002742 <rt_device_write+0x9a>
    80002726:	fe843783          	ld	a5,-24(s0)
    8000272a:	73bc                	ld	a5,96(a5)
    8000272c:	fd043683          	ld	a3,-48(s0)
    80002730:	fd843603          	ld	a2,-40(s0)
    80002734:	fe043583          	ld	a1,-32(s0)
    80002738:	fe843503          	ld	a0,-24(s0)
    8000273c:	9782                	jalr	a5
    8000273e:	87aa                	mv	a5,a0
    80002740:	a029                	j	8000274a <rt_device_write+0xa2>
    80002742:	5569                	li	a0,-6
    80002744:	080010ef          	jal	ra,800037c4 <rt_set_errno>
    80002748:	4781                	li	a5,0
    8000274a:	853e                	mv	a0,a5
    8000274c:	70a2                	ld	ra,40(sp)
    8000274e:	7402                	ld	s0,32(sp)
    80002750:	6145                	addi	sp,sp,48
    80002752:	8082                	ret

0000000080002754 <rt_device_control>:
    80002754:	7179                	addi	sp,sp,-48
    80002756:	f406                	sd	ra,40(sp)
    80002758:	f022                	sd	s0,32(sp)
    8000275a:	1800                	addi	s0,sp,48
    8000275c:	fea43423          	sd	a0,-24(s0)
    80002760:	87ae                	mv	a5,a1
    80002762:	fcc43c23          	sd	a2,-40(s0)
    80002766:	fef42223          	sw	a5,-28(s0)
    8000276a:	fe843783          	ld	a5,-24(s0)
    8000276e:	ef89                	bnez	a5,80002788 <rt_device_control+0x34>
    80002770:	1a700613          	li	a2,423
    80002774:	00023597          	auipc	a1,0x23
    80002778:	7bc58593          	addi	a1,a1,1980 # 80025f30 <__FUNCTION__.3509>
    8000277c:	0001f517          	auipc	a0,0x1f
    80002780:	25c50513          	addi	a0,a0,604 # 800219d8 <__clzdi2+0x532>
    80002784:	3b4020ef          	jal	ra,80004b38 <rt_assert_handler>
    80002788:	fe843783          	ld	a5,-24(s0)
    8000278c:	853e                	mv	a0,a5
    8000278e:	0ab020ef          	jal	ra,80005038 <rt_object_get_type>
    80002792:	87aa                	mv	a5,a0
    80002794:	873e                	mv	a4,a5
    80002796:	47a5                	li	a5,9
    80002798:	00f70e63          	beq	a4,a5,800027b4 <rt_device_control+0x60>
    8000279c:	1a800613          	li	a2,424
    800027a0:	00023597          	auipc	a1,0x23
    800027a4:	79058593          	addi	a1,a1,1936 # 80025f30 <__FUNCTION__.3509>
    800027a8:	0001f517          	auipc	a0,0x1f
    800027ac:	24050513          	addi	a0,a0,576 # 800219e8 <__clzdi2+0x542>
    800027b0:	388020ef          	jal	ra,80004b38 <rt_assert_handler>
    800027b4:	fe843783          	ld	a5,-24(s0)
    800027b8:	77bc                	ld	a5,104(a5)
    800027ba:	cf91                	beqz	a5,800027d6 <rt_device_control+0x82>
    800027bc:	fe843783          	ld	a5,-24(s0)
    800027c0:	77b8                	ld	a4,104(a5)
    800027c2:	fe442783          	lw	a5,-28(s0)
    800027c6:	fd843603          	ld	a2,-40(s0)
    800027ca:	85be                	mv	a1,a5
    800027cc:	fe843503          	ld	a0,-24(s0)
    800027d0:	9702                	jalr	a4
    800027d2:	87aa                	mv	a5,a0
    800027d4:	a011                	j	800027d8 <rt_device_control+0x84>
    800027d6:	57e9                	li	a5,-6
    800027d8:	853e                	mv	a0,a5
    800027da:	70a2                	ld	ra,40(sp)
    800027dc:	7402                	ld	s0,32(sp)
    800027de:	6145                	addi	sp,sp,48
    800027e0:	8082                	ret

00000000800027e2 <rt_device_set_rx_indicate>:
    800027e2:	1101                	addi	sp,sp,-32
    800027e4:	ec06                	sd	ra,24(sp)
    800027e6:	e822                	sd	s0,16(sp)
    800027e8:	1000                	addi	s0,sp,32
    800027ea:	fea43423          	sd	a0,-24(s0)
    800027ee:	feb43023          	sd	a1,-32(s0)
    800027f2:	fe843783          	ld	a5,-24(s0)
    800027f6:	ef89                	bnez	a5,80002810 <rt_device_set_rx_indicate+0x2e>
    800027f8:	1c100613          	li	a2,449
    800027fc:	00023597          	auipc	a1,0x23
    80002800:	74c58593          	addi	a1,a1,1868 # 80025f48 <__FUNCTION__.3516>
    80002804:	0001f517          	auipc	a0,0x1f
    80002808:	1d450513          	addi	a0,a0,468 # 800219d8 <__clzdi2+0x532>
    8000280c:	32c020ef          	jal	ra,80004b38 <rt_assert_handler>
    80002810:	fe843783          	ld	a5,-24(s0)
    80002814:	853e                	mv	a0,a5
    80002816:	023020ef          	jal	ra,80005038 <rt_object_get_type>
    8000281a:	87aa                	mv	a5,a0
    8000281c:	873e                	mv	a4,a5
    8000281e:	47a5                	li	a5,9
    80002820:	00f70e63          	beq	a4,a5,8000283c <rt_device_set_rx_indicate+0x5a>
    80002824:	1c200613          	li	a2,450
    80002828:	00023597          	auipc	a1,0x23
    8000282c:	72058593          	addi	a1,a1,1824 # 80025f48 <__FUNCTION__.3516>
    80002830:	0001f517          	auipc	a0,0x1f
    80002834:	1b850513          	addi	a0,a0,440 # 800219e8 <__clzdi2+0x542>
    80002838:	300020ef          	jal	ra,80004b38 <rt_assert_handler>
    8000283c:	fe843783          	ld	a5,-24(s0)
    80002840:	fe043703          	ld	a4,-32(s0)
    80002844:	fb98                	sd	a4,48(a5)
    80002846:	4781                	li	a5,0
    80002848:	853e                	mv	a0,a5
    8000284a:	60e2                	ld	ra,24(sp)
    8000284c:	6442                	ld	s0,16(sp)
    8000284e:	6105                	addi	sp,sp,32
    80002850:	8082                	ret

0000000080002852 <rt_list_remove>:
    80002852:	1101                	addi	sp,sp,-32
    80002854:	ec22                	sd	s0,24(sp)
    80002856:	1000                	addi	s0,sp,32
    80002858:	fea43423          	sd	a0,-24(s0)
    8000285c:	fe843783          	ld	a5,-24(s0)
    80002860:	639c                	ld	a5,0(a5)
    80002862:	fe843703          	ld	a4,-24(s0)
    80002866:	6718                	ld	a4,8(a4)
    80002868:	e798                	sd	a4,8(a5)
    8000286a:	fe843783          	ld	a5,-24(s0)
    8000286e:	679c                	ld	a5,8(a5)
    80002870:	fe843703          	ld	a4,-24(s0)
    80002874:	6318                	ld	a4,0(a4)
    80002876:	e398                	sd	a4,0(a5)
    80002878:	fe843783          	ld	a5,-24(s0)
    8000287c:	fe843703          	ld	a4,-24(s0)
    80002880:	e798                	sd	a4,8(a5)
    80002882:	fe843783          	ld	a5,-24(s0)
    80002886:	6798                	ld	a4,8(a5)
    80002888:	fe843783          	ld	a5,-24(s0)
    8000288c:	e398                	sd	a4,0(a5)
    8000288e:	0001                	nop
    80002890:	6462                	ld	s0,24(sp)
    80002892:	6105                	addi	sp,sp,32
    80002894:	8082                	ret

0000000080002896 <_has_defunct_thread>:
    80002896:	1101                	addi	sp,sp,-32
    80002898:	ec22                	sd	s0,24(sp)
    8000289a:	1000                	addi	s0,sp,32
    8000289c:	0002c797          	auipc	a5,0x2c
    800028a0:	87478793          	addi	a5,a5,-1932 # 8002e110 <rt_thread_defunct>
    800028a4:	fef43423          	sd	a5,-24(s0)
    800028a8:	fe843783          	ld	a5,-24(s0)
    800028ac:	639c                	ld	a5,0(a5)
    800028ae:	fe843703          	ld	a4,-24(s0)
    800028b2:	40f707b3          	sub	a5,a4,a5
    800028b6:	00f037b3          	snez	a5,a5
    800028ba:	0ff7f793          	andi	a5,a5,255
    800028be:	2781                	sext.w	a5,a5
    800028c0:	853e                	mv	a0,a5
    800028c2:	6462                	ld	s0,24(sp)
    800028c4:	6105                	addi	sp,sp,32
    800028c6:	8082                	ret

00000000800028c8 <rt_thread_idle_excute>:
    800028c8:	7179                	addi	sp,sp,-48
    800028ca:	f406                	sd	ra,40(sp)
    800028cc:	f022                	sd	s0,32(sp)
    800028ce:	1800                	addi	s0,sp,48
    800028d0:	a0c5                	j	800029b0 <rt_thread_idle_excute+0xe8>
    800028d2:	f78ff0ef          	jal	ra,8000204a <rt_cpus_lock>
    800028d6:	fea43423          	sd	a0,-24(s0)
    800028da:	6b7000ef          	jal	ra,80003790 <rt_interrupt_get_nest>
    800028de:	87aa                	mv	a5,a0
    800028e0:	c79d                	beqz	a5,8000290e <rt_thread_idle_excute+0x46>
    800028e2:	00023597          	auipc	a1,0x23
    800028e6:	68658593          	addi	a1,a1,1670 # 80025f68 <__FUNCTION__.3190>
    800028ea:	0001f517          	auipc	a0,0x1f
    800028ee:	20650513          	addi	a0,a0,518 # 80021af0 <__clzdi2+0x64a>
    800028f2:	086020ef          	jal	ra,80004978 <rt_kprintf>
    800028f6:	0a000613          	li	a2,160
    800028fa:	00023597          	auipc	a1,0x23
    800028fe:	66e58593          	addi	a1,a1,1646 # 80025f68 <__FUNCTION__.3190>
    80002902:	0001f517          	auipc	a0,0x1f
    80002906:	21650513          	addi	a0,a0,534 # 80021b18 <__clzdi2+0x672>
    8000290a:	22e020ef          	jal	ra,80004b38 <rt_assert_handler>
    8000290e:	fe843503          	ld	a0,-24(s0)
    80002912:	facff0ef          	jal	ra,800020be <rt_cpus_unlock>
    80002916:	f34ff0ef          	jal	ra,8000204a <rt_cpus_lock>
    8000291a:	fea43023          	sd	a0,-32(s0)
    8000291e:	f79ff0ef          	jal	ra,80002896 <_has_defunct_thread>
    80002922:	87aa                	mv	a5,a0
    80002924:	c3bd                	beqz	a5,8000298a <rt_thread_idle_excute+0xc2>
    80002926:	0002b797          	auipc	a5,0x2b
    8000292a:	7ea78793          	addi	a5,a5,2026 # 8002e110 <rt_thread_defunct>
    8000292e:	639c                	ld	a5,0(a5)
    80002930:	1781                	addi	a5,a5,-32
    80002932:	fcf43c23          	sd	a5,-40(s0)
    80002936:	fd843783          	ld	a5,-40(s0)
    8000293a:	02078793          	addi	a5,a5,32
    8000293e:	853e                	mv	a0,a5
    80002940:	f13ff0ef          	jal	ra,80002852 <rt_list_remove>
    80002944:	11a030ef          	jal	ra,80005a5e <rt_enter_critical>
    80002948:	fd843783          	ld	a5,-40(s0)
    8000294c:	6bfc                	ld	a5,208(a5)
    8000294e:	c799                	beqz	a5,8000295c <rt_thread_idle_excute+0x94>
    80002950:	fd843783          	ld	a5,-40(s0)
    80002954:	6bfc                	ld	a5,208(a5)
    80002956:	fd843503          	ld	a0,-40(s0)
    8000295a:	9782                	jalr	a5
    8000295c:	fd843503          	ld	a0,-40(s0)
    80002960:	68a020ef          	jal	ra,80004fea <rt_object_is_systemobject>
    80002964:	87aa                	mv	a5,a0
    80002966:	873e                	mv	a4,a5
    80002968:	4785                	li	a5,1
    8000296a:	00f71d63          	bne	a4,a5,80002984 <rt_thread_idle_excute+0xbc>
    8000296e:	fd843503          	ld	a0,-40(s0)
    80002972:	436020ef          	jal	ra,80004da8 <rt_object_detach>
    80002976:	168030ef          	jal	ra,80005ade <rt_exit_critical>
    8000297a:	fe043503          	ld	a0,-32(s0)
    8000297e:	f40ff0ef          	jal	ra,800020be <rt_cpus_unlock>
    80002982:	a825                	j	800029ba <rt_thread_idle_excute+0xf2>
    80002984:	15a030ef          	jal	ra,80005ade <rt_exit_critical>
    80002988:	a031                	j	80002994 <rt_thread_idle_excute+0xcc>
    8000298a:	fe043503          	ld	a0,-32(s0)
    8000298e:	f30ff0ef          	jal	ra,800020be <rt_cpus_unlock>
    80002992:	a025                	j	800029ba <rt_thread_idle_excute+0xf2>
    80002994:	fe043503          	ld	a0,-32(s0)
    80002998:	f26ff0ef          	jal	ra,800020be <rt_cpus_unlock>
    8000299c:	fd843783          	ld	a5,-40(s0)
    800029a0:	67bc                	ld	a5,72(a5)
    800029a2:	853e                	mv	a0,a5
    800029a4:	02e040ef          	jal	ra,800069d2 <rt_free>
    800029a8:	fd843503          	ld	a0,-40(s0)
    800029ac:	596020ef          	jal	ra,80004f42 <rt_object_delete>
    800029b0:	ee7ff0ef          	jal	ra,80002896 <_has_defunct_thread>
    800029b4:	87aa                	mv	a5,a0
    800029b6:	f0079ee3          	bnez	a5,800028d2 <rt_thread_idle_excute+0xa>
    800029ba:	70a2                	ld	ra,40(sp)
    800029bc:	7402                	ld	s0,32(sp)
    800029be:	6145                	addi	sp,sp,48
    800029c0:	8082                	ret

00000000800029c2 <rt_thread_idle_entry>:
    800029c2:	7179                	addi	sp,sp,-48
    800029c4:	f406                	sd	ra,40(sp)
    800029c6:	f022                	sd	s0,32(sp)
    800029c8:	1800                	addi	s0,sp,48
    800029ca:	fca43c23          	sd	a0,-40(s0)
    800029ce:	11d050ef          	jal	ra,800082ea <rt_hw_cpu_id>
    800029d2:	87aa                	mv	a5,a0
    800029d4:	c781                	beqz	a5,800029dc <rt_thread_idle_entry+0x1a>
    800029d6:	21f050ef          	jal	ra,800083f4 <rt_hw_secondary_cpu_idle_exec>
    800029da:	bff5                	j	800029d6 <rt_thread_idle_entry+0x14>
    800029dc:	fe043423          	sd	zero,-24(s0)
    800029e0:	a815                	j	80002a14 <rt_thread_idle_entry+0x52>
    800029e2:	0002b717          	auipc	a4,0x2b
    800029e6:	48e70713          	addi	a4,a4,1166 # 8002de70 <idle_hook_list>
    800029ea:	fe843783          	ld	a5,-24(s0)
    800029ee:	078e                	slli	a5,a5,0x3
    800029f0:	97ba                	add	a5,a5,a4
    800029f2:	639c                	ld	a5,0(a5)
    800029f4:	cb99                	beqz	a5,80002a0a <rt_thread_idle_entry+0x48>
    800029f6:	0002b717          	auipc	a4,0x2b
    800029fa:	47a70713          	addi	a4,a4,1146 # 8002de70 <idle_hook_list>
    800029fe:	fe843783          	ld	a5,-24(s0)
    80002a02:	078e                	slli	a5,a5,0x3
    80002a04:	97ba                	add	a5,a5,a4
    80002a06:	639c                	ld	a5,0(a5)
    80002a08:	9782                	jalr	a5
    80002a0a:	fe843783          	ld	a5,-24(s0)
    80002a0e:	0785                	addi	a5,a5,1
    80002a10:	fef43423          	sd	a5,-24(s0)
    80002a14:	fe843703          	ld	a4,-24(s0)
    80002a18:	478d                	li	a5,3
    80002a1a:	fce7f4e3          	bgeu	a5,a4,800029e2 <rt_thread_idle_entry+0x20>
    80002a1e:	eabff0ef          	jal	ra,800028c8 <rt_thread_idle_excute>
    80002a22:	bf6d                	j	800029dc <rt_thread_idle_entry+0x1a>

0000000080002a24 <rt_thread_idle_init>:
    80002a24:	7179                	addi	sp,sp,-48
    80002a26:	f406                	sd	ra,40(sp)
    80002a28:	f022                	sd	s0,32(sp)
    80002a2a:	1800                	addi	s0,sp,48
    80002a2c:	fe043423          	sd	zero,-24(s0)
    80002a30:	a05d                	j	80002ad6 <rt_thread_idle_init+0xb2>
    80002a32:	fd840793          	addi	a5,s0,-40
    80002a36:	fe843603          	ld	a2,-24(s0)
    80002a3a:	0001f597          	auipc	a1,0x1f
    80002a3e:	0e658593          	addi	a1,a1,230 # 80021b20 <__clzdi2+0x67a>
    80002a42:	853e                	mv	a0,a5
    80002a44:	649010ef          	jal	ra,8000488c <rt_sprintf>
    80002a48:	fe843703          	ld	a4,-24(s0)
    80002a4c:	87ba                	mv	a5,a4
    80002a4e:	078e                	slli	a5,a5,0x3
    80002a50:	8f99                	sub	a5,a5,a4
    80002a52:	0796                	slli	a5,a5,0x5
    80002a54:	00029717          	auipc	a4,0x29
    80002a58:	25c70713          	addi	a4,a4,604 # 8002bcb0 <idle>
    80002a5c:	00e78533          	add	a0,a5,a4
    80002a60:	fe843783          	ld	a5,-24(s0)
    80002a64:	00c79713          	slli	a4,a5,0xc
    80002a68:	00029797          	auipc	a5,0x29
    80002a6c:	40878793          	addi	a5,a5,1032 # 8002be70 <rt_thread_stack>
    80002a70:	973e                	add	a4,a4,a5
    80002a72:	fd840593          	addi	a1,s0,-40
    80002a76:	02000893          	li	a7,32
    80002a7a:	487d                	li	a6,31
    80002a7c:	6785                	lui	a5,0x1
    80002a7e:	4681                	li	a3,0
    80002a80:	00000617          	auipc	a2,0x0
    80002a84:	f4260613          	addi	a2,a2,-190 # 800029c2 <rt_thread_idle_entry>
    80002a88:	5dc040ef          	jal	ra,80007064 <rt_thread_init>
    80002a8c:	fe843703          	ld	a4,-24(s0)
    80002a90:	87ba                	mv	a5,a4
    80002a92:	078e                	slli	a5,a5,0x3
    80002a94:	8f99                	sub	a5,a5,a4
    80002a96:	0796                	slli	a5,a5,0x5
    80002a98:	00029717          	auipc	a4,0x29
    80002a9c:	21870713          	addi	a4,a4,536 # 8002bcb0 <idle>
    80002aa0:	97ba                	add	a5,a5,a4
    80002aa2:	fe843703          	ld	a4,-24(s0)
    80002aa6:	863a                	mv	a2,a4
    80002aa8:	4591                	li	a1,4
    80002aaa:	853e                	mv	a0,a5
    80002aac:	20b040ef          	jal	ra,800074b6 <rt_thread_control>
    80002ab0:	fe843703          	ld	a4,-24(s0)
    80002ab4:	87ba                	mv	a5,a4
    80002ab6:	078e                	slli	a5,a5,0x3
    80002ab8:	8f99                	sub	a5,a5,a4
    80002aba:	0796                	slli	a5,a5,0x5
    80002abc:	00029717          	auipc	a4,0x29
    80002ac0:	1f470713          	addi	a4,a4,500 # 8002bcb0 <idle>
    80002ac4:	97ba                	add	a5,a5,a4
    80002ac6:	853e                	mv	a0,a5
    80002ac8:	67c040ef          	jal	ra,80007144 <rt_thread_startup>
    80002acc:	fe843783          	ld	a5,-24(s0)
    80002ad0:	0785                	addi	a5,a5,1
    80002ad2:	fef43423          	sd	a5,-24(s0)
    80002ad6:	fe843703          	ld	a4,-24(s0)
    80002ada:	4785                	li	a5,1
    80002adc:	f4e7fbe3          	bgeu	a5,a4,80002a32 <rt_thread_idle_init+0xe>
    80002ae0:	0001                	nop
    80002ae2:	70a2                	ld	ra,40(sp)
    80002ae4:	7402                	ld	s0,32(sp)
    80002ae6:	6145                	addi	sp,sp,48
    80002ae8:	8082                	ret

0000000080002aea <rt_list_init>:
    80002aea:	1101                	addi	sp,sp,-32
    80002aec:	ec22                	sd	s0,24(sp)
    80002aee:	1000                	addi	s0,sp,32
    80002af0:	fea43423          	sd	a0,-24(s0)
    80002af4:	fe843783          	ld	a5,-24(s0)
    80002af8:	fe843703          	ld	a4,-24(s0)
    80002afc:	e798                	sd	a4,8(a5)
    80002afe:	fe843783          	ld	a5,-24(s0)
    80002b02:	6798                	ld	a4,8(a5)
    80002b04:	fe843783          	ld	a5,-24(s0)
    80002b08:	e398                	sd	a4,0(a5)
    80002b0a:	0001                	nop
    80002b0c:	6462                	ld	s0,24(sp)
    80002b0e:	6105                	addi	sp,sp,32
    80002b10:	8082                	ret

0000000080002b12 <rt_list_insert_before>:
    80002b12:	1101                	addi	sp,sp,-32
    80002b14:	ec22                	sd	s0,24(sp)
    80002b16:	1000                	addi	s0,sp,32
    80002b18:	fea43423          	sd	a0,-24(s0)
    80002b1c:	feb43023          	sd	a1,-32(s0)
    80002b20:	fe843783          	ld	a5,-24(s0)
    80002b24:	679c                	ld	a5,8(a5)
    80002b26:	fe043703          	ld	a4,-32(s0)
    80002b2a:	e398                	sd	a4,0(a5)
    80002b2c:	fe843783          	ld	a5,-24(s0)
    80002b30:	6798                	ld	a4,8(a5)
    80002b32:	fe043783          	ld	a5,-32(s0)
    80002b36:	e798                	sd	a4,8(a5)
    80002b38:	fe843783          	ld	a5,-24(s0)
    80002b3c:	fe043703          	ld	a4,-32(s0)
    80002b40:	e798                	sd	a4,8(a5)
    80002b42:	fe043783          	ld	a5,-32(s0)
    80002b46:	fe843703          	ld	a4,-24(s0)
    80002b4a:	e398                	sd	a4,0(a5)
    80002b4c:	0001                	nop
    80002b4e:	6462                	ld	s0,24(sp)
    80002b50:	6105                	addi	sp,sp,32
    80002b52:	8082                	ret

0000000080002b54 <rt_list_isempty>:
    80002b54:	1101                	addi	sp,sp,-32
    80002b56:	ec22                	sd	s0,24(sp)
    80002b58:	1000                	addi	s0,sp,32
    80002b5a:	fea43423          	sd	a0,-24(s0)
    80002b5e:	fe843783          	ld	a5,-24(s0)
    80002b62:	639c                	ld	a5,0(a5)
    80002b64:	fe843703          	ld	a4,-24(s0)
    80002b68:	40f707b3          	sub	a5,a4,a5
    80002b6c:	0017b793          	seqz	a5,a5
    80002b70:	0ff7f793          	andi	a5,a5,255
    80002b74:	2781                	sext.w	a5,a5
    80002b76:	853e                	mv	a0,a5
    80002b78:	6462                	ld	s0,24(sp)
    80002b7a:	6105                	addi	sp,sp,32
    80002b7c:	8082                	ret

0000000080002b7e <rt_ipc_object_init>:
    80002b7e:	1101                	addi	sp,sp,-32
    80002b80:	ec06                	sd	ra,24(sp)
    80002b82:	e822                	sd	s0,16(sp)
    80002b84:	1000                	addi	s0,sp,32
    80002b86:	fea43423          	sd	a0,-24(s0)
    80002b8a:	fe843783          	ld	a5,-24(s0)
    80002b8e:	02078793          	addi	a5,a5,32 # 1020 <__STACKSIZE__+0x20>
    80002b92:	853e                	mv	a0,a5
    80002b94:	f57ff0ef          	jal	ra,80002aea <rt_list_init>
    80002b98:	4781                	li	a5,0
    80002b9a:	853e                	mv	a0,a5
    80002b9c:	60e2                	ld	ra,24(sp)
    80002b9e:	6442                	ld	s0,16(sp)
    80002ba0:	6105                	addi	sp,sp,32
    80002ba2:	8082                	ret

0000000080002ba4 <rt_ipc_list_suspend>:
    80002ba4:	7139                	addi	sp,sp,-64
    80002ba6:	fc06                	sd	ra,56(sp)
    80002ba8:	f822                	sd	s0,48(sp)
    80002baa:	0080                	addi	s0,sp,64
    80002bac:	fca43c23          	sd	a0,-40(s0)
    80002bb0:	fcb43823          	sd	a1,-48(s0)
    80002bb4:	87b2                	mv	a5,a2
    80002bb6:	fcf407a3          	sb	a5,-49(s0)
    80002bba:	fd043503          	ld	a0,-48(s0)
    80002bbe:	28b040ef          	jal	ra,80007648 <rt_thread_suspend>
    80002bc2:	fcf44783          	lbu	a5,-49(s0)
    80002bc6:	2781                	sext.w	a5,a5
    80002bc8:	c791                	beqz	a5,80002bd4 <rt_ipc_list_suspend+0x30>
    80002bca:	873e                	mv	a4,a5
    80002bcc:	4785                	li	a5,1
    80002bce:	00f70d63          	beq	a4,a5,80002be8 <rt_ipc_list_suspend+0x44>
    80002bd2:	a841                	j	80002c62 <rt_ipc_list_suspend+0xbe>
    80002bd4:	fd043783          	ld	a5,-48(s0)
    80002bd8:	02078793          	addi	a5,a5,32
    80002bdc:	85be                	mv	a1,a5
    80002bde:	fd843503          	ld	a0,-40(s0)
    80002be2:	f31ff0ef          	jal	ra,80002b12 <rt_list_insert_before>
    80002be6:	a8b5                	j	80002c62 <rt_ipc_list_suspend+0xbe>
    80002be8:	fd843783          	ld	a5,-40(s0)
    80002bec:	639c                	ld	a5,0(a5)
    80002bee:	fef43423          	sd	a5,-24(s0)
    80002bf2:	a091                	j	80002c36 <rt_ipc_list_suspend+0x92>
    80002bf4:	fe843783          	ld	a5,-24(s0)
    80002bf8:	1781                	addi	a5,a5,-32
    80002bfa:	fef43023          	sd	a5,-32(s0)
    80002bfe:	fd043783          	ld	a5,-48(s0)
    80002c02:	06a7c703          	lbu	a4,106(a5)
    80002c06:	fe043783          	ld	a5,-32(s0)
    80002c0a:	06a7c783          	lbu	a5,106(a5)
    80002c0e:	00f77f63          	bgeu	a4,a5,80002c2c <rt_ipc_list_suspend+0x88>
    80002c12:	fe043783          	ld	a5,-32(s0)
    80002c16:	02078713          	addi	a4,a5,32
    80002c1a:	fd043783          	ld	a5,-48(s0)
    80002c1e:	02078793          	addi	a5,a5,32
    80002c22:	85be                	mv	a1,a5
    80002c24:	853a                	mv	a0,a4
    80002c26:	eedff0ef          	jal	ra,80002b12 <rt_list_insert_before>
    80002c2a:	a821                	j	80002c42 <rt_ipc_list_suspend+0x9e>
    80002c2c:	fe843783          	ld	a5,-24(s0)
    80002c30:	639c                	ld	a5,0(a5)
    80002c32:	fef43423          	sd	a5,-24(s0)
    80002c36:	fe843703          	ld	a4,-24(s0)
    80002c3a:	fd843783          	ld	a5,-40(s0)
    80002c3e:	faf71be3          	bne	a4,a5,80002bf4 <rt_ipc_list_suspend+0x50>
    80002c42:	fe843703          	ld	a4,-24(s0)
    80002c46:	fd843783          	ld	a5,-40(s0)
    80002c4a:	00f71b63          	bne	a4,a5,80002c60 <rt_ipc_list_suspend+0xbc>
    80002c4e:	fd043783          	ld	a5,-48(s0)
    80002c52:	02078793          	addi	a5,a5,32
    80002c56:	85be                	mv	a1,a5
    80002c58:	fd843503          	ld	a0,-40(s0)
    80002c5c:	eb7ff0ef          	jal	ra,80002b12 <rt_list_insert_before>
    80002c60:	0001                	nop
    80002c62:	4781                	li	a5,0
    80002c64:	853e                	mv	a0,a5
    80002c66:	70e2                	ld	ra,56(sp)
    80002c68:	7442                	ld	s0,48(sp)
    80002c6a:	6121                	addi	sp,sp,64
    80002c6c:	8082                	ret

0000000080002c6e <rt_ipc_list_resume>:
    80002c6e:	7179                	addi	sp,sp,-48
    80002c70:	f406                	sd	ra,40(sp)
    80002c72:	f022                	sd	s0,32(sp)
    80002c74:	1800                	addi	s0,sp,48
    80002c76:	fca43c23          	sd	a0,-40(s0)
    80002c7a:	fd843783          	ld	a5,-40(s0)
    80002c7e:	639c                	ld	a5,0(a5)
    80002c80:	1781                	addi	a5,a5,-32
    80002c82:	fef43423          	sd	a5,-24(s0)
    80002c86:	fe843503          	ld	a0,-24(s0)
    80002c8a:	2df040ef          	jal	ra,80007768 <rt_thread_resume>
    80002c8e:	4781                	li	a5,0
    80002c90:	853e                	mv	a0,a5
    80002c92:	70a2                	ld	ra,40(sp)
    80002c94:	7402                	ld	s0,32(sp)
    80002c96:	6145                	addi	sp,sp,48
    80002c98:	8082                	ret

0000000080002c9a <rt_ipc_list_resume_all>:
    80002c9a:	7139                	addi	sp,sp,-64
    80002c9c:	fc06                	sd	ra,56(sp)
    80002c9e:	f822                	sd	s0,48(sp)
    80002ca0:	f426                	sd	s1,40(sp)
    80002ca2:	0080                	addi	s0,sp,64
    80002ca4:	fca43423          	sd	a0,-56(s0)
    80002ca8:	a03d                	j	80002cd6 <rt_ipc_list_resume_all+0x3c>
    80002caa:	ba0ff0ef          	jal	ra,8000204a <rt_cpus_lock>
    80002cae:	87aa                	mv	a5,a0
    80002cb0:	84be                	mv	s1,a5
    80002cb2:	fc843783          	ld	a5,-56(s0)
    80002cb6:	639c                	ld	a5,0(a5)
    80002cb8:	1781                	addi	a5,a5,-32
    80002cba:	fcf43c23          	sd	a5,-40(s0)
    80002cbe:	fd843783          	ld	a5,-40(s0)
    80002cc2:	577d                	li	a4,-1
    80002cc4:	efb8                	sd	a4,88(a5)
    80002cc6:	fd843503          	ld	a0,-40(s0)
    80002cca:	29f040ef          	jal	ra,80007768 <rt_thread_resume>
    80002cce:	87a6                	mv	a5,s1
    80002cd0:	853e                	mv	a0,a5
    80002cd2:	becff0ef          	jal	ra,800020be <rt_cpus_unlock>
    80002cd6:	fc843503          	ld	a0,-56(s0)
    80002cda:	e7bff0ef          	jal	ra,80002b54 <rt_list_isempty>
    80002cde:	87aa                	mv	a5,a0
    80002ce0:	d7e9                	beqz	a5,80002caa <rt_ipc_list_resume_all+0x10>
    80002ce2:	4781                	li	a5,0
    80002ce4:	853e                	mv	a0,a5
    80002ce6:	70e2                	ld	ra,56(sp)
    80002ce8:	7442                	ld	s0,48(sp)
    80002cea:	74a2                	ld	s1,40(sp)
    80002cec:	6121                	addi	sp,sp,64
    80002cee:	8082                	ret

0000000080002cf0 <rt_sem_init>:
    80002cf0:	7179                	addi	sp,sp,-48
    80002cf2:	f406                	sd	ra,40(sp)
    80002cf4:	f022                	sd	s0,32(sp)
    80002cf6:	1800                	addi	s0,sp,48
    80002cf8:	fea43423          	sd	a0,-24(s0)
    80002cfc:	feb43023          	sd	a1,-32(s0)
    80002d00:	87b2                	mv	a5,a2
    80002d02:	8736                	mv	a4,a3
    80002d04:	fcf42e23          	sw	a5,-36(s0)
    80002d08:	87ba                	mv	a5,a4
    80002d0a:	fcf40da3          	sb	a5,-37(s0)
    80002d0e:	fe843783          	ld	a5,-24(s0)
    80002d12:	ef89                	bnez	a5,80002d2c <rt_sem_init+0x3c>
    80002d14:	0cc00613          	li	a2,204
    80002d18:	00023597          	auipc	a1,0x23
    80002d1c:	26858593          	addi	a1,a1,616 # 80025f80 <__FUNCTION__.3195>
    80002d20:	0001f517          	auipc	a0,0x1f
    80002d24:	e0850513          	addi	a0,a0,-504 # 80021b28 <__clzdi2+0x682>
    80002d28:	611010ef          	jal	ra,80004b38 <rt_assert_handler>
    80002d2c:	fdc42783          	lw	a5,-36(s0)
    80002d30:	0007871b          	sext.w	a4,a5
    80002d34:	67c1                	lui	a5,0x10
    80002d36:	00f76e63          	bltu	a4,a5,80002d52 <rt_sem_init+0x62>
    80002d3a:	0cd00613          	li	a2,205
    80002d3e:	00023597          	auipc	a1,0x23
    80002d42:	24258593          	addi	a1,a1,578 # 80025f80 <__FUNCTION__.3195>
    80002d46:	0001f517          	auipc	a0,0x1f
    80002d4a:	df250513          	addi	a0,a0,-526 # 80021b38 <__clzdi2+0x692>
    80002d4e:	5eb010ef          	jal	ra,80004b38 <rt_assert_handler>
    80002d52:	fe843783          	ld	a5,-24(s0)
    80002d56:	fe043603          	ld	a2,-32(s0)
    80002d5a:	4589                	li	a1,2
    80002d5c:	853e                	mv	a0,a5
    80002d5e:	731010ef          	jal	ra,80004c8e <rt_object_init>
    80002d62:	fe843783          	ld	a5,-24(s0)
    80002d66:	853e                	mv	a0,a5
    80002d68:	e17ff0ef          	jal	ra,80002b7e <rt_ipc_object_init>
    80002d6c:	fdc42783          	lw	a5,-36(s0)
    80002d70:	03079713          	slli	a4,a5,0x30
    80002d74:	9341                	srli	a4,a4,0x30
    80002d76:	fe843783          	ld	a5,-24(s0)
    80002d7a:	02e79823          	sh	a4,48(a5) # 10030 <__STACKSIZE__+0xf030>
    80002d7e:	fe843783          	ld	a5,-24(s0)
    80002d82:	fdb44703          	lbu	a4,-37(s0)
    80002d86:	00e786a3          	sb	a4,13(a5)
    80002d8a:	4781                	li	a5,0
    80002d8c:	853e                	mv	a0,a5
    80002d8e:	70a2                	ld	ra,40(sp)
    80002d90:	7402                	ld	s0,32(sp)
    80002d92:	6145                	addi	sp,sp,48
    80002d94:	8082                	ret

0000000080002d96 <rt_sem_take>:
    80002d96:	715d                	addi	sp,sp,-80
    80002d98:	e486                	sd	ra,72(sp)
    80002d9a:	e0a2                	sd	s0,64(sp)
    80002d9c:	fc26                	sd	s1,56(sp)
    80002d9e:	0880                	addi	s0,sp,80
    80002da0:	faa43c23          	sd	a0,-72(s0)
    80002da4:	87ae                	mv	a5,a1
    80002da6:	faf42a23          	sw	a5,-76(s0)
    80002daa:	fb843783          	ld	a5,-72(s0)
    80002dae:	ef89                	bnez	a5,80002dc8 <rt_sem_take+0x32>
    80002db0:	14a00613          	li	a2,330
    80002db4:	00023597          	auipc	a1,0x23
    80002db8:	1dc58593          	addi	a1,a1,476 # 80025f90 <__FUNCTION__.3219>
    80002dbc:	0001f517          	auipc	a0,0x1f
    80002dc0:	d6c50513          	addi	a0,a0,-660 # 80021b28 <__clzdi2+0x682>
    80002dc4:	575010ef          	jal	ra,80004b38 <rt_assert_handler>
    80002dc8:	fb843783          	ld	a5,-72(s0)
    80002dcc:	853e                	mv	a0,a5
    80002dce:	26a020ef          	jal	ra,80005038 <rt_object_get_type>
    80002dd2:	87aa                	mv	a5,a0
    80002dd4:	873e                	mv	a4,a5
    80002dd6:	4789                	li	a5,2
    80002dd8:	00f70e63          	beq	a4,a5,80002df4 <rt_sem_take+0x5e>
    80002ddc:	14b00613          	li	a2,331
    80002de0:	00023597          	auipc	a1,0x23
    80002de4:	1b058593          	addi	a1,a1,432 # 80025f90 <__FUNCTION__.3219>
    80002de8:	0001f517          	auipc	a0,0x1f
    80002dec:	d6850513          	addi	a0,a0,-664 # 80021b50 <__clzdi2+0x6aa>
    80002df0:	549010ef          	jal	ra,80004b38 <rt_assert_handler>
    80002df4:	00028797          	auipc	a5,0x28
    80002df8:	41c78793          	addi	a5,a5,1052 # 8002b210 <rt_object_trytake_hook>
    80002dfc:	639c                	ld	a5,0(a5)
    80002dfe:	cb91                	beqz	a5,80002e12 <rt_sem_take+0x7c>
    80002e00:	00028797          	auipc	a5,0x28
    80002e04:	41078793          	addi	a5,a5,1040 # 8002b210 <rt_object_trytake_hook>
    80002e08:	6398                	ld	a4,0(a5)
    80002e0a:	fb843783          	ld	a5,-72(s0)
    80002e0e:	853e                	mv	a0,a5
    80002e10:	9702                	jalr	a4
    80002e12:	a38ff0ef          	jal	ra,8000204a <rt_cpus_lock>
    80002e16:	84aa                	mv	s1,a0
    80002e18:	fb843783          	ld	a5,-72(s0)
    80002e1c:	0307d783          	lhu	a5,48(a5)
    80002e20:	c38d                	beqz	a5,80002e42 <rt_sem_take+0xac>
    80002e22:	fb843783          	ld	a5,-72(s0)
    80002e26:	0307d783          	lhu	a5,48(a5)
    80002e2a:	37fd                	addiw	a5,a5,-1
    80002e2c:	03079713          	slli	a4,a5,0x30
    80002e30:	9341                	srli	a4,a4,0x30
    80002e32:	fb843783          	ld	a5,-72(s0)
    80002e36:	02e79823          	sh	a4,48(a5)
    80002e3a:	8526                	mv	a0,s1
    80002e3c:	a82ff0ef          	jal	ra,800020be <rt_cpus_unlock>
    80002e40:	a231                	j	80002f4c <rt_sem_take+0x1b6>
    80002e42:	fb442783          	lw	a5,-76(s0)
    80002e46:	e791                	bnez	a5,80002e52 <rt_sem_take+0xbc>
    80002e48:	8526                	mv	a0,s1
    80002e4a:	a74ff0ef          	jal	ra,800020be <rt_cpus_unlock>
    80002e4e:	57f9                	li	a5,-2
    80002e50:	aa31                	j	80002f6c <rt_sem_take+0x1d6>
    80002e52:	9f8ff0ef          	jal	ra,8000204a <rt_cpus_lock>
    80002e56:	fca43c23          	sd	a0,-40(s0)
    80002e5a:	2b8040ef          	jal	ra,80007112 <rt_thread_self>
    80002e5e:	87aa                	mv	a5,a0
    80002e60:	e79d                	bnez	a5,80002e8e <rt_sem_take+0xf8>
    80002e62:	00023597          	auipc	a1,0x23
    80002e66:	12e58593          	addi	a1,a1,302 # 80025f90 <__FUNCTION__.3219>
    80002e6a:	0001f517          	auipc	a0,0x1f
    80002e6e:	dce50513          	addi	a0,a0,-562 # 80021c38 <__clzdi2+0x792>
    80002e72:	307010ef          	jal	ra,80004978 <rt_kprintf>
    80002e76:	16b00613          	li	a2,363
    80002e7a:	00023597          	auipc	a1,0x23
    80002e7e:	11658593          	addi	a1,a1,278 # 80025f90 <__FUNCTION__.3219>
    80002e82:	0001f517          	auipc	a0,0x1f
    80002e86:	d6e50513          	addi	a0,a0,-658 # 80021bf0 <__clzdi2+0x74a>
    80002e8a:	4af010ef          	jal	ra,80004b38 <rt_assert_handler>
    80002e8e:	9bcff0ef          	jal	ra,8000204a <rt_cpus_lock>
    80002e92:	fca43823          	sd	a0,-48(s0)
    80002e96:	0fb000ef          	jal	ra,80003790 <rt_interrupt_get_nest>
    80002e9a:	87aa                	mv	a5,a0
    80002e9c:	c79d                	beqz	a5,80002eca <rt_sem_take+0x134>
    80002e9e:	00023597          	auipc	a1,0x23
    80002ea2:	0f258593          	addi	a1,a1,242 # 80025f90 <__FUNCTION__.3219>
    80002ea6:	0001f517          	auipc	a0,0x1f
    80002eaa:	d2250513          	addi	a0,a0,-734 # 80021bc8 <__clzdi2+0x722>
    80002eae:	2cb010ef          	jal	ra,80004978 <rt_kprintf>
    80002eb2:	16b00613          	li	a2,363
    80002eb6:	00023597          	auipc	a1,0x23
    80002eba:	0da58593          	addi	a1,a1,218 # 80025f90 <__FUNCTION__.3219>
    80002ebe:	0001f517          	auipc	a0,0x1f
    80002ec2:	d3250513          	addi	a0,a0,-718 # 80021bf0 <__clzdi2+0x74a>
    80002ec6:	473010ef          	jal	ra,80004b38 <rt_assert_handler>
    80002eca:	fd043503          	ld	a0,-48(s0)
    80002ece:	9f0ff0ef          	jal	ra,800020be <rt_cpus_unlock>
    80002ed2:	fd843503          	ld	a0,-40(s0)
    80002ed6:	9e8ff0ef          	jal	ra,800020be <rt_cpus_unlock>
    80002eda:	238040ef          	jal	ra,80007112 <rt_thread_self>
    80002ede:	fca43423          	sd	a0,-56(s0)
    80002ee2:	fc843783          	ld	a5,-56(s0)
    80002ee6:	0407bc23          	sd	zero,88(a5)
    80002eea:	fb843783          	ld	a5,-72(s0)
    80002eee:	02078713          	addi	a4,a5,32
    80002ef2:	fb843783          	ld	a5,-72(s0)
    80002ef6:	00d7c783          	lbu	a5,13(a5)
    80002efa:	863e                	mv	a2,a5
    80002efc:	fc843583          	ld	a1,-56(s0)
    80002f00:	853a                	mv	a0,a4
    80002f02:	ca3ff0ef          	jal	ra,80002ba4 <rt_ipc_list_suspend>
    80002f06:	fb442783          	lw	a5,-76(s0)
    80002f0a:	02f05463          	blez	a5,80002f32 <rt_sem_take+0x19c>
    80002f0e:	fc843783          	ld	a5,-56(s0)
    80002f12:	08878793          	addi	a5,a5,136
    80002f16:	fb440713          	addi	a4,s0,-76
    80002f1a:	863a                	mv	a2,a4
    80002f1c:	4581                	li	a1,0
    80002f1e:	853e                	mv	a0,a5
    80002f20:	042050ef          	jal	ra,80007f62 <rt_timer_control>
    80002f24:	fc843783          	ld	a5,-56(s0)
    80002f28:	08878793          	addi	a5,a5,136
    80002f2c:	853e                	mv	a0,a5
    80002f2e:	497040ef          	jal	ra,80007bc4 <rt_timer_start>
    80002f32:	8526                	mv	a0,s1
    80002f34:	98aff0ef          	jal	ra,800020be <rt_cpus_unlock>
    80002f38:	47e020ef          	jal	ra,800053b6 <rt_schedule>
    80002f3c:	fc843783          	ld	a5,-56(s0)
    80002f40:	6fbc                	ld	a5,88(a5)
    80002f42:	c789                	beqz	a5,80002f4c <rt_sem_take+0x1b6>
    80002f44:	fc843783          	ld	a5,-56(s0)
    80002f48:	6fbc                	ld	a5,88(a5)
    80002f4a:	a00d                	j	80002f6c <rt_sem_take+0x1d6>
    80002f4c:	00028797          	auipc	a5,0x28
    80002f50:	2cc78793          	addi	a5,a5,716 # 8002b218 <rt_object_take_hook>
    80002f54:	639c                	ld	a5,0(a5)
    80002f56:	cb91                	beqz	a5,80002f6a <rt_sem_take+0x1d4>
    80002f58:	00028797          	auipc	a5,0x28
    80002f5c:	2c078793          	addi	a5,a5,704 # 8002b218 <rt_object_take_hook>
    80002f60:	6398                	ld	a4,0(a5)
    80002f62:	fb843783          	ld	a5,-72(s0)
    80002f66:	853e                	mv	a0,a5
    80002f68:	9702                	jalr	a4
    80002f6a:	4781                	li	a5,0
    80002f6c:	853e                	mv	a0,a5
    80002f6e:	60a6                	ld	ra,72(sp)
    80002f70:	6406                	ld	s0,64(sp)
    80002f72:	74e2                	ld	s1,56(sp)
    80002f74:	6161                	addi	sp,sp,80
    80002f76:	8082                	ret

0000000080002f78 <rt_sem_release>:
    80002f78:	7179                	addi	sp,sp,-48
    80002f7a:	f406                	sd	ra,40(sp)
    80002f7c:	f022                	sd	s0,32(sp)
    80002f7e:	ec26                	sd	s1,24(sp)
    80002f80:	e84a                	sd	s2,16(sp)
    80002f82:	1800                	addi	s0,sp,48
    80002f84:	fca43c23          	sd	a0,-40(s0)
    80002f88:	fd843783          	ld	a5,-40(s0)
    80002f8c:	ef89                	bnez	a5,80002fa6 <rt_sem_release+0x2e>
    80002f8e:	1b700613          	li	a2,439
    80002f92:	00023597          	auipc	a1,0x23
    80002f96:	00e58593          	addi	a1,a1,14 # 80025fa0 <__FUNCTION__.3230>
    80002f9a:	0001f517          	auipc	a0,0x1f
    80002f9e:	b8e50513          	addi	a0,a0,-1138 # 80021b28 <__clzdi2+0x682>
    80002fa2:	397010ef          	jal	ra,80004b38 <rt_assert_handler>
    80002fa6:	fd843783          	ld	a5,-40(s0)
    80002faa:	853e                	mv	a0,a5
    80002fac:	08c020ef          	jal	ra,80005038 <rt_object_get_type>
    80002fb0:	87aa                	mv	a5,a0
    80002fb2:	873e                	mv	a4,a5
    80002fb4:	4789                	li	a5,2
    80002fb6:	00f70e63          	beq	a4,a5,80002fd2 <rt_sem_release+0x5a>
    80002fba:	1b800613          	li	a2,440
    80002fbe:	00023597          	auipc	a1,0x23
    80002fc2:	fe258593          	addi	a1,a1,-30 # 80025fa0 <__FUNCTION__.3230>
    80002fc6:	0001f517          	auipc	a0,0x1f
    80002fca:	b8a50513          	addi	a0,a0,-1142 # 80021b50 <__clzdi2+0x6aa>
    80002fce:	36b010ef          	jal	ra,80004b38 <rt_assert_handler>
    80002fd2:	00028797          	auipc	a5,0x28
    80002fd6:	24e78793          	addi	a5,a5,590 # 8002b220 <rt_object_put_hook>
    80002fda:	639c                	ld	a5,0(a5)
    80002fdc:	cb91                	beqz	a5,80002ff0 <rt_sem_release+0x78>
    80002fde:	00028797          	auipc	a5,0x28
    80002fe2:	24278793          	addi	a5,a5,578 # 8002b220 <rt_object_put_hook>
    80002fe6:	6398                	ld	a4,0(a5)
    80002fe8:	fd843783          	ld	a5,-40(s0)
    80002fec:	853e                	mv	a0,a5
    80002fee:	9702                	jalr	a4
    80002ff0:	4481                	li	s1,0
    80002ff2:	858ff0ef          	jal	ra,8000204a <rt_cpus_lock>
    80002ff6:	892a                	mv	s2,a0
    80002ff8:	fd843783          	ld	a5,-40(s0)
    80002ffc:	02078793          	addi	a5,a5,32
    80003000:	853e                	mv	a0,a5
    80003002:	b53ff0ef          	jal	ra,80002b54 <rt_list_isempty>
    80003006:	87aa                	mv	a5,a0
    80003008:	eb91                	bnez	a5,8000301c <rt_sem_release+0xa4>
    8000300a:	fd843783          	ld	a5,-40(s0)
    8000300e:	02078793          	addi	a5,a5,32
    80003012:	853e                	mv	a0,a5
    80003014:	c5bff0ef          	jal	ra,80002c6e <rt_ipc_list_resume>
    80003018:	4485                	li	s1,1
    8000301a:	a829                	j	80003034 <rt_sem_release+0xbc>
    8000301c:	fd843783          	ld	a5,-40(s0)
    80003020:	0307d783          	lhu	a5,48(a5)
    80003024:	2785                	addiw	a5,a5,1
    80003026:	03079713          	slli	a4,a5,0x30
    8000302a:	9341                	srli	a4,a4,0x30
    8000302c:	fd843783          	ld	a5,-40(s0)
    80003030:	02e79823          	sh	a4,48(a5)
    80003034:	854a                	mv	a0,s2
    80003036:	888ff0ef          	jal	ra,800020be <rt_cpus_unlock>
    8000303a:	8726                	mv	a4,s1
    8000303c:	4785                	li	a5,1
    8000303e:	00f71463          	bne	a4,a5,80003046 <rt_sem_release+0xce>
    80003042:	374020ef          	jal	ra,800053b6 <rt_schedule>
    80003046:	4781                	li	a5,0
    80003048:	853e                	mv	a0,a5
    8000304a:	70a2                	ld	ra,40(sp)
    8000304c:	7402                	ld	s0,32(sp)
    8000304e:	64e2                	ld	s1,24(sp)
    80003050:	6942                	ld	s2,16(sp)
    80003052:	6145                	addi	sp,sp,48
    80003054:	8082                	ret

0000000080003056 <rt_sem_control>:
    80003056:	7139                	addi	sp,sp,-64
    80003058:	fc06                	sd	ra,56(sp)
    8000305a:	f822                	sd	s0,48(sp)
    8000305c:	0080                	addi	s0,sp,64
    8000305e:	fca43c23          	sd	a0,-40(s0)
    80003062:	87ae                	mv	a5,a1
    80003064:	fcc43423          	sd	a2,-56(s0)
    80003068:	fcf42a23          	sw	a5,-44(s0)
    8000306c:	fd843783          	ld	a5,-40(s0)
    80003070:	ef89                	bnez	a5,8000308a <rt_sem_control+0x34>
    80003072:	1e800613          	li	a2,488
    80003076:	00023597          	auipc	a1,0x23
    8000307a:	f3a58593          	addi	a1,a1,-198 # 80025fb0 <__FUNCTION__.3237>
    8000307e:	0001f517          	auipc	a0,0x1f
    80003082:	aaa50513          	addi	a0,a0,-1366 # 80021b28 <__clzdi2+0x682>
    80003086:	2b3010ef          	jal	ra,80004b38 <rt_assert_handler>
    8000308a:	fd843783          	ld	a5,-40(s0)
    8000308e:	853e                	mv	a0,a5
    80003090:	7a9010ef          	jal	ra,80005038 <rt_object_get_type>
    80003094:	87aa                	mv	a5,a0
    80003096:	873e                	mv	a4,a5
    80003098:	4789                	li	a5,2
    8000309a:	00f70e63          	beq	a4,a5,800030b6 <rt_sem_control+0x60>
    8000309e:	1e900613          	li	a2,489
    800030a2:	00023597          	auipc	a1,0x23
    800030a6:	f0e58593          	addi	a1,a1,-242 # 80025fb0 <__FUNCTION__.3237>
    800030aa:	0001f517          	auipc	a0,0x1f
    800030ae:	aa650513          	addi	a0,a0,-1370 # 80021b50 <__clzdi2+0x6aa>
    800030b2:	287010ef          	jal	ra,80004b38 <rt_assert_handler>
    800030b6:	fd442783          	lw	a5,-44(s0)
    800030ba:	0007871b          	sext.w	a4,a5
    800030be:	4785                	li	a5,1
    800030c0:	04f71463          	bne	a4,a5,80003108 <rt_sem_control+0xb2>
    800030c4:	fc843783          	ld	a5,-56(s0)
    800030c8:	fef43423          	sd	a5,-24(s0)
    800030cc:	f7ffe0ef          	jal	ra,8000204a <rt_cpus_lock>
    800030d0:	87aa                	mv	a5,a0
    800030d2:	fef43023          	sd	a5,-32(s0)
    800030d6:	fd843783          	ld	a5,-40(s0)
    800030da:	02078793          	addi	a5,a5,32
    800030de:	853e                	mv	a0,a5
    800030e0:	bbbff0ef          	jal	ra,80002c9a <rt_ipc_list_resume_all>
    800030e4:	fe843783          	ld	a5,-24(s0)
    800030e8:	03079713          	slli	a4,a5,0x30
    800030ec:	9341                	srli	a4,a4,0x30
    800030ee:	fd843783          	ld	a5,-40(s0)
    800030f2:	02e79823          	sh	a4,48(a5)
    800030f6:	fe043783          	ld	a5,-32(s0)
    800030fa:	853e                	mv	a0,a5
    800030fc:	fc3fe0ef          	jal	ra,800020be <rt_cpus_unlock>
    80003100:	2b6020ef          	jal	ra,800053b6 <rt_schedule>
    80003104:	4781                	li	a5,0
    80003106:	a011                	j	8000310a <rt_sem_control+0xb4>
    80003108:	57fd                	li	a5,-1
    8000310a:	853e                	mv	a0,a5
    8000310c:	70e2                	ld	ra,56(sp)
    8000310e:	7442                	ld	s0,48(sp)
    80003110:	6121                	addi	sp,sp,64
    80003112:	8082                	ret

0000000080003114 <rt_mutex_init>:
    80003114:	7179                	addi	sp,sp,-48
    80003116:	f406                	sd	ra,40(sp)
    80003118:	f022                	sd	s0,32(sp)
    8000311a:	1800                	addi	s0,sp,48
    8000311c:	fea43423          	sd	a0,-24(s0)
    80003120:	feb43023          	sd	a1,-32(s0)
    80003124:	87b2                	mv	a5,a2
    80003126:	fcf40fa3          	sb	a5,-33(s0)
    8000312a:	fe843783          	ld	a5,-24(s0)
    8000312e:	ef89                	bnez	a5,80003148 <rt_mutex_init+0x34>
    80003130:	21500613          	li	a2,533
    80003134:	00023597          	auipc	a1,0x23
    80003138:	e8c58593          	addi	a1,a1,-372 # 80025fc0 <__FUNCTION__.3244>
    8000313c:	0001f517          	auipc	a0,0x1f
    80003140:	b3450513          	addi	a0,a0,-1228 # 80021c70 <__clzdi2+0x7ca>
    80003144:	1f5010ef          	jal	ra,80004b38 <rt_assert_handler>
    80003148:	fe843783          	ld	a5,-24(s0)
    8000314c:	fe043603          	ld	a2,-32(s0)
    80003150:	458d                	li	a1,3
    80003152:	853e                	mv	a0,a5
    80003154:	33b010ef          	jal	ra,80004c8e <rt_object_init>
    80003158:	fe843783          	ld	a5,-24(s0)
    8000315c:	853e                	mv	a0,a5
    8000315e:	a21ff0ef          	jal	ra,80002b7e <rt_ipc_object_init>
    80003162:	fe843783          	ld	a5,-24(s0)
    80003166:	4705                	li	a4,1
    80003168:	02e79823          	sh	a4,48(a5)
    8000316c:	fe843783          	ld	a5,-24(s0)
    80003170:	0207bc23          	sd	zero,56(a5)
    80003174:	fe843783          	ld	a5,-24(s0)
    80003178:	577d                	li	a4,-1
    8000317a:	02e78923          	sb	a4,50(a5)
    8000317e:	fe843783          	ld	a5,-24(s0)
    80003182:	020789a3          	sb	zero,51(a5)
    80003186:	fe843783          	ld	a5,-24(s0)
    8000318a:	fdf44703          	lbu	a4,-33(s0)
    8000318e:	00e786a3          	sb	a4,13(a5)
    80003192:	4781                	li	a5,0
    80003194:	853e                	mv	a0,a5
    80003196:	70a2                	ld	ra,40(sp)
    80003198:	7402                	ld	s0,32(sp)
    8000319a:	6145                	addi	sp,sp,48
    8000319c:	8082                	ret

000000008000319e <rt_mutex_detach>:
    8000319e:	1101                	addi	sp,sp,-32
    800031a0:	ec06                	sd	ra,24(sp)
    800031a2:	e822                	sd	s0,16(sp)
    800031a4:	1000                	addi	s0,sp,32
    800031a6:	fea43423          	sd	a0,-24(s0)
    800031aa:	fe843783          	ld	a5,-24(s0)
    800031ae:	ef89                	bnez	a5,800031c8 <rt_mutex_detach+0x2a>
    800031b0:	23500613          	li	a2,565
    800031b4:	00023597          	auipc	a1,0x23
    800031b8:	e1c58593          	addi	a1,a1,-484 # 80025fd0 <__FUNCTION__.3248>
    800031bc:	0001f517          	auipc	a0,0x1f
    800031c0:	ab450513          	addi	a0,a0,-1356 # 80021c70 <__clzdi2+0x7ca>
    800031c4:	175010ef          	jal	ra,80004b38 <rt_assert_handler>
    800031c8:	fe843783          	ld	a5,-24(s0)
    800031cc:	853e                	mv	a0,a5
    800031ce:	66b010ef          	jal	ra,80005038 <rt_object_get_type>
    800031d2:	87aa                	mv	a5,a0
    800031d4:	873e                	mv	a4,a5
    800031d6:	478d                	li	a5,3
    800031d8:	00f70e63          	beq	a4,a5,800031f4 <rt_mutex_detach+0x56>
    800031dc:	23600613          	li	a2,566
    800031e0:	00023597          	auipc	a1,0x23
    800031e4:	df058593          	addi	a1,a1,-528 # 80025fd0 <__FUNCTION__.3248>
    800031e8:	0001f517          	auipc	a0,0x1f
    800031ec:	aa050513          	addi	a0,a0,-1376 # 80021c88 <__clzdi2+0x7e2>
    800031f0:	149010ef          	jal	ra,80004b38 <rt_assert_handler>
    800031f4:	fe843783          	ld	a5,-24(s0)
    800031f8:	853e                	mv	a0,a5
    800031fa:	5f1010ef          	jal	ra,80004fea <rt_object_is_systemobject>
    800031fe:	87aa                	mv	a5,a0
    80003200:	ef89                	bnez	a5,8000321a <rt_mutex_detach+0x7c>
    80003202:	23700613          	li	a2,567
    80003206:	00023597          	auipc	a1,0x23
    8000320a:	dca58593          	addi	a1,a1,-566 # 80025fd0 <__FUNCTION__.3248>
    8000320e:	0001f517          	auipc	a0,0x1f
    80003212:	ac250513          	addi	a0,a0,-1342 # 80021cd0 <__clzdi2+0x82a>
    80003216:	123010ef          	jal	ra,80004b38 <rt_assert_handler>
    8000321a:	fe843783          	ld	a5,-24(s0)
    8000321e:	02078793          	addi	a5,a5,32
    80003222:	853e                	mv	a0,a5
    80003224:	a77ff0ef          	jal	ra,80002c9a <rt_ipc_list_resume_all>
    80003228:	fe843783          	ld	a5,-24(s0)
    8000322c:	853e                	mv	a0,a5
    8000322e:	37b010ef          	jal	ra,80004da8 <rt_object_detach>
    80003232:	4781                	li	a5,0
    80003234:	853e                	mv	a0,a5
    80003236:	60e2                	ld	ra,24(sp)
    80003238:	6442                	ld	s0,16(sp)
    8000323a:	6105                	addi	sp,sp,32
    8000323c:	8082                	ret

000000008000323e <rt_mutex_take>:
    8000323e:	715d                	addi	sp,sp,-80
    80003240:	e486                	sd	ra,72(sp)
    80003242:	e0a2                	sd	s0,64(sp)
    80003244:	fc26                	sd	s1,56(sp)
    80003246:	0880                	addi	s0,sp,80
    80003248:	faa43c23          	sd	a0,-72(s0)
    8000324c:	87ae                	mv	a5,a1
    8000324e:	faf42a23          	sw	a5,-76(s0)
    80003252:	df9fe0ef          	jal	ra,8000204a <rt_cpus_lock>
    80003256:	fca43c23          	sd	a0,-40(s0)
    8000325a:	6b9030ef          	jal	ra,80007112 <rt_thread_self>
    8000325e:	87aa                	mv	a5,a0
    80003260:	e79d                	bnez	a5,8000328e <rt_mutex_take+0x50>
    80003262:	00023597          	auipc	a1,0x23
    80003266:	d7e58593          	addi	a1,a1,-642 # 80025fe0 <__FUNCTION__.3268>
    8000326a:	0001f517          	auipc	a0,0x1f
    8000326e:	9ce50513          	addi	a0,a0,-1586 # 80021c38 <__clzdi2+0x792>
    80003272:	706010ef          	jal	ra,80004978 <rt_kprintf>
    80003276:	29400613          	li	a2,660
    8000327a:	00023597          	auipc	a1,0x23
    8000327e:	d6658593          	addi	a1,a1,-666 # 80025fe0 <__FUNCTION__.3268>
    80003282:	0001f517          	auipc	a0,0x1f
    80003286:	96e50513          	addi	a0,a0,-1682 # 80021bf0 <__clzdi2+0x74a>
    8000328a:	0af010ef          	jal	ra,80004b38 <rt_assert_handler>
    8000328e:	dbdfe0ef          	jal	ra,8000204a <rt_cpus_lock>
    80003292:	fca43823          	sd	a0,-48(s0)
    80003296:	4fa000ef          	jal	ra,80003790 <rt_interrupt_get_nest>
    8000329a:	87aa                	mv	a5,a0
    8000329c:	c79d                	beqz	a5,800032ca <rt_mutex_take+0x8c>
    8000329e:	00023597          	auipc	a1,0x23
    800032a2:	d4258593          	addi	a1,a1,-702 # 80025fe0 <__FUNCTION__.3268>
    800032a6:	0001f517          	auipc	a0,0x1f
    800032aa:	92250513          	addi	a0,a0,-1758 # 80021bc8 <__clzdi2+0x722>
    800032ae:	6ca010ef          	jal	ra,80004978 <rt_kprintf>
    800032b2:	29400613          	li	a2,660
    800032b6:	00023597          	auipc	a1,0x23
    800032ba:	d2a58593          	addi	a1,a1,-726 # 80025fe0 <__FUNCTION__.3268>
    800032be:	0001f517          	auipc	a0,0x1f
    800032c2:	93250513          	addi	a0,a0,-1742 # 80021bf0 <__clzdi2+0x74a>
    800032c6:	073010ef          	jal	ra,80004b38 <rt_assert_handler>
    800032ca:	fd043503          	ld	a0,-48(s0)
    800032ce:	df1fe0ef          	jal	ra,800020be <rt_cpus_unlock>
    800032d2:	fd843503          	ld	a0,-40(s0)
    800032d6:	de9fe0ef          	jal	ra,800020be <rt_cpus_unlock>
    800032da:	fb843783          	ld	a5,-72(s0)
    800032de:	ef89                	bnez	a5,800032f8 <rt_mutex_take+0xba>
    800032e0:	29700613          	li	a2,663
    800032e4:	00023597          	auipc	a1,0x23
    800032e8:	cfc58593          	addi	a1,a1,-772 # 80025fe0 <__FUNCTION__.3268>
    800032ec:	0001f517          	auipc	a0,0x1f
    800032f0:	98450513          	addi	a0,a0,-1660 # 80021c70 <__clzdi2+0x7ca>
    800032f4:	045010ef          	jal	ra,80004b38 <rt_assert_handler>
    800032f8:	fb843783          	ld	a5,-72(s0)
    800032fc:	853e                	mv	a0,a5
    800032fe:	53b010ef          	jal	ra,80005038 <rt_object_get_type>
    80003302:	87aa                	mv	a5,a0
    80003304:	873e                	mv	a4,a5
    80003306:	478d                	li	a5,3
    80003308:	00f70e63          	beq	a4,a5,80003324 <rt_mutex_take+0xe6>
    8000330c:	29800613          	li	a2,664
    80003310:	00023597          	auipc	a1,0x23
    80003314:	cd058593          	addi	a1,a1,-816 # 80025fe0 <__FUNCTION__.3268>
    80003318:	0001f517          	auipc	a0,0x1f
    8000331c:	97050513          	addi	a0,a0,-1680 # 80021c88 <__clzdi2+0x7e2>
    80003320:	019010ef          	jal	ra,80004b38 <rt_assert_handler>
    80003324:	5ef030ef          	jal	ra,80007112 <rt_thread_self>
    80003328:	fca43423          	sd	a0,-56(s0)
    8000332c:	d1ffe0ef          	jal	ra,8000204a <rt_cpus_lock>
    80003330:	84aa                	mv	s1,a0
    80003332:	00028797          	auipc	a5,0x28
    80003336:	ede78793          	addi	a5,a5,-290 # 8002b210 <rt_object_trytake_hook>
    8000333a:	639c                	ld	a5,0(a5)
    8000333c:	cb91                	beqz	a5,80003350 <rt_mutex_take+0x112>
    8000333e:	00028797          	auipc	a5,0x28
    80003342:	ed278793          	addi	a5,a5,-302 # 8002b210 <rt_object_trytake_hook>
    80003346:	6398                	ld	a4,0(a5)
    80003348:	fb843783          	ld	a5,-72(s0)
    8000334c:	853e                	mv	a0,a5
    8000334e:	9702                	jalr	a4
    80003350:	fc843783          	ld	a5,-56(s0)
    80003354:	0407bc23          	sd	zero,88(a5)
    80003358:	fb843783          	ld	a5,-72(s0)
    8000335c:	7f9c                	ld	a5,56(a5)
    8000335e:	fc843703          	ld	a4,-56(s0)
    80003362:	00f71e63          	bne	a4,a5,8000337e <rt_mutex_take+0x140>
    80003366:	fb843783          	ld	a5,-72(s0)
    8000336a:	0337c783          	lbu	a5,51(a5)
    8000336e:	2785                	addiw	a5,a5,1
    80003370:	0ff7f713          	andi	a4,a5,255
    80003374:	fb843783          	ld	a5,-72(s0)
    80003378:	02e789a3          	sb	a4,51(a5)
    8000337c:	aa11                	j	80003490 <rt_mutex_take+0x252>
    8000337e:	0001                	nop
    80003380:	fb843783          	ld	a5,-72(s0)
    80003384:	0307d783          	lhu	a5,48(a5)
    80003388:	c7b1                	beqz	a5,800033d4 <rt_mutex_take+0x196>
    8000338a:	fb843783          	ld	a5,-72(s0)
    8000338e:	0307d783          	lhu	a5,48(a5)
    80003392:	37fd                	addiw	a5,a5,-1
    80003394:	03079713          	slli	a4,a5,0x30
    80003398:	9341                	srli	a4,a4,0x30
    8000339a:	fb843783          	ld	a5,-72(s0)
    8000339e:	02e79823          	sh	a4,48(a5)
    800033a2:	fb843783          	ld	a5,-72(s0)
    800033a6:	fc843703          	ld	a4,-56(s0)
    800033aa:	ff98                	sd	a4,56(a5)
    800033ac:	fc843783          	ld	a5,-56(s0)
    800033b0:	06a7c703          	lbu	a4,106(a5)
    800033b4:	fb843783          	ld	a5,-72(s0)
    800033b8:	02e78923          	sb	a4,50(a5)
    800033bc:	fb843783          	ld	a5,-72(s0)
    800033c0:	0337c783          	lbu	a5,51(a5)
    800033c4:	2785                	addiw	a5,a5,1
    800033c6:	0ff7f713          	andi	a4,a5,255
    800033ca:	fb843783          	ld	a5,-72(s0)
    800033ce:	02e789a3          	sb	a4,51(a5)
    800033d2:	a87d                	j	80003490 <rt_mutex_take+0x252>
    800033d4:	fb442783          	lw	a5,-76(s0)
    800033d8:	eb91                	bnez	a5,800033ec <rt_mutex_take+0x1ae>
    800033da:	fc843783          	ld	a5,-56(s0)
    800033de:	5779                	li	a4,-2
    800033e0:	efb8                	sd	a4,88(a5)
    800033e2:	8526                	mv	a0,s1
    800033e4:	cdbfe0ef          	jal	ra,800020be <rt_cpus_unlock>
    800033e8:	57f9                	li	a5,-2
    800033ea:	a0f1                	j	800034b6 <rt_mutex_take+0x278>
    800033ec:	fc843783          	ld	a5,-56(s0)
    800033f0:	06a7c703          	lbu	a4,106(a5)
    800033f4:	fb843783          	ld	a5,-72(s0)
    800033f8:	7f9c                	ld	a5,56(a5)
    800033fa:	06a7c783          	lbu	a5,106(a5)
    800033fe:	00f77e63          	bgeu	a4,a5,8000341a <rt_mutex_take+0x1dc>
    80003402:	fb843783          	ld	a5,-72(s0)
    80003406:	7f98                	ld	a4,56(a5)
    80003408:	fc843783          	ld	a5,-56(s0)
    8000340c:	06a78793          	addi	a5,a5,106
    80003410:	863e                	mv	a2,a5
    80003412:	4589                	li	a1,2
    80003414:	853a                	mv	a0,a4
    80003416:	0a0040ef          	jal	ra,800074b6 <rt_thread_control>
    8000341a:	fb843783          	ld	a5,-72(s0)
    8000341e:	02078713          	addi	a4,a5,32
    80003422:	fb843783          	ld	a5,-72(s0)
    80003426:	00d7c783          	lbu	a5,13(a5)
    8000342a:	863e                	mv	a2,a5
    8000342c:	fc843583          	ld	a1,-56(s0)
    80003430:	853a                	mv	a0,a4
    80003432:	f72ff0ef          	jal	ra,80002ba4 <rt_ipc_list_suspend>
    80003436:	fb442783          	lw	a5,-76(s0)
    8000343a:	02f05463          	blez	a5,80003462 <rt_mutex_take+0x224>
    8000343e:	fc843783          	ld	a5,-56(s0)
    80003442:	08878793          	addi	a5,a5,136
    80003446:	fb440713          	addi	a4,s0,-76
    8000344a:	863a                	mv	a2,a4
    8000344c:	4581                	li	a1,0
    8000344e:	853e                	mv	a0,a5
    80003450:	313040ef          	jal	ra,80007f62 <rt_timer_control>
    80003454:	fc843783          	ld	a5,-56(s0)
    80003458:	08878793          	addi	a5,a5,136
    8000345c:	853e                	mv	a0,a5
    8000345e:	766040ef          	jal	ra,80007bc4 <rt_timer_start>
    80003462:	8526                	mv	a0,s1
    80003464:	c5bfe0ef          	jal	ra,800020be <rt_cpus_unlock>
    80003468:	74f010ef          	jal	ra,800053b6 <rt_schedule>
    8000346c:	fc843783          	ld	a5,-56(s0)
    80003470:	6fbc                	ld	a5,88(a5)
    80003472:	cf81                	beqz	a5,8000348a <rt_mutex_take+0x24c>
    80003474:	fc843783          	ld	a5,-56(s0)
    80003478:	6fb8                	ld	a4,88(a5)
    8000347a:	57dd                	li	a5,-9
    8000347c:	00f71363          	bne	a4,a5,80003482 <rt_mutex_take+0x244>
    80003480:	b701                	j	80003380 <rt_mutex_take+0x142>
    80003482:	fc843783          	ld	a5,-56(s0)
    80003486:	6fbc                	ld	a5,88(a5)
    80003488:	a03d                	j	800034b6 <rt_mutex_take+0x278>
    8000348a:	bc1fe0ef          	jal	ra,8000204a <rt_cpus_lock>
    8000348e:	84aa                	mv	s1,a0
    80003490:	8526                	mv	a0,s1
    80003492:	c2dfe0ef          	jal	ra,800020be <rt_cpus_unlock>
    80003496:	00028797          	auipc	a5,0x28
    8000349a:	d8278793          	addi	a5,a5,-638 # 8002b218 <rt_object_take_hook>
    8000349e:	639c                	ld	a5,0(a5)
    800034a0:	cb91                	beqz	a5,800034b4 <rt_mutex_take+0x276>
    800034a2:	00028797          	auipc	a5,0x28
    800034a6:	d7678793          	addi	a5,a5,-650 # 8002b218 <rt_object_take_hook>
    800034aa:	6398                	ld	a4,0(a5)
    800034ac:	fb843783          	ld	a5,-72(s0)
    800034b0:	853e                	mv	a0,a5
    800034b2:	9702                	jalr	a4
    800034b4:	4781                	li	a5,0
    800034b6:	853e                	mv	a0,a5
    800034b8:	60a6                	ld	ra,72(sp)
    800034ba:	6406                	ld	s0,64(sp)
    800034bc:	74e2                	ld	s1,56(sp)
    800034be:	6161                	addi	sp,sp,80
    800034c0:	8082                	ret

00000000800034c2 <rt_mutex_release>:
    800034c2:	715d                	addi	sp,sp,-80
    800034c4:	e486                	sd	ra,72(sp)
    800034c6:	e0a2                	sd	s0,64(sp)
    800034c8:	fc26                	sd	s1,56(sp)
    800034ca:	0880                	addi	s0,sp,80
    800034cc:	faa43c23          	sd	a0,-72(s0)
    800034d0:	fb843783          	ld	a5,-72(s0)
    800034d4:	ef89                	bnez	a5,800034ee <rt_mutex_release+0x2c>
    800034d6:	31d00613          	li	a2,797
    800034da:	00023597          	auipc	a1,0x23
    800034de:	b1658593          	addi	a1,a1,-1258 # 80025ff0 <__FUNCTION__.3277>
    800034e2:	0001e517          	auipc	a0,0x1e
    800034e6:	78e50513          	addi	a0,a0,1934 # 80021c70 <__clzdi2+0x7ca>
    800034ea:	64e010ef          	jal	ra,80004b38 <rt_assert_handler>
    800034ee:	fb843783          	ld	a5,-72(s0)
    800034f2:	853e                	mv	a0,a5
    800034f4:	345010ef          	jal	ra,80005038 <rt_object_get_type>
    800034f8:	87aa                	mv	a5,a0
    800034fa:	873e                	mv	a4,a5
    800034fc:	478d                	li	a5,3
    800034fe:	00f70e63          	beq	a4,a5,8000351a <rt_mutex_release+0x58>
    80003502:	31e00613          	li	a2,798
    80003506:	00023597          	auipc	a1,0x23
    8000350a:	aea58593          	addi	a1,a1,-1302 # 80025ff0 <__FUNCTION__.3277>
    8000350e:	0001e517          	auipc	a0,0x1e
    80003512:	77a50513          	addi	a0,a0,1914 # 80021c88 <__clzdi2+0x7e2>
    80003516:	622010ef          	jal	ra,80004b38 <rt_assert_handler>
    8000351a:	fc042e23          	sw	zero,-36(s0)
    8000351e:	b2dfe0ef          	jal	ra,8000204a <rt_cpus_lock>
    80003522:	fca43823          	sd	a0,-48(s0)
    80003526:	3ed030ef          	jal	ra,80007112 <rt_thread_self>
    8000352a:	87aa                	mv	a5,a0
    8000352c:	e79d                	bnez	a5,8000355a <rt_mutex_release+0x98>
    8000352e:	00023597          	auipc	a1,0x23
    80003532:	ac258593          	addi	a1,a1,-1342 # 80025ff0 <__FUNCTION__.3277>
    80003536:	0001e517          	auipc	a0,0x1e
    8000353a:	70250513          	addi	a0,a0,1794 # 80021c38 <__clzdi2+0x792>
    8000353e:	43a010ef          	jal	ra,80004978 <rt_kprintf>
    80003542:	32300613          	li	a2,803
    80003546:	00023597          	auipc	a1,0x23
    8000354a:	aaa58593          	addi	a1,a1,-1366 # 80025ff0 <__FUNCTION__.3277>
    8000354e:	0001e517          	auipc	a0,0x1e
    80003552:	6a250513          	addi	a0,a0,1698 # 80021bf0 <__clzdi2+0x74a>
    80003556:	5e2010ef          	jal	ra,80004b38 <rt_assert_handler>
    8000355a:	af1fe0ef          	jal	ra,8000204a <rt_cpus_lock>
    8000355e:	fca43423          	sd	a0,-56(s0)
    80003562:	22e000ef          	jal	ra,80003790 <rt_interrupt_get_nest>
    80003566:	87aa                	mv	a5,a0
    80003568:	c79d                	beqz	a5,80003596 <rt_mutex_release+0xd4>
    8000356a:	00023597          	auipc	a1,0x23
    8000356e:	a8658593          	addi	a1,a1,-1402 # 80025ff0 <__FUNCTION__.3277>
    80003572:	0001e517          	auipc	a0,0x1e
    80003576:	65650513          	addi	a0,a0,1622 # 80021bc8 <__clzdi2+0x722>
    8000357a:	3fe010ef          	jal	ra,80004978 <rt_kprintf>
    8000357e:	32300613          	li	a2,803
    80003582:	00023597          	auipc	a1,0x23
    80003586:	a6e58593          	addi	a1,a1,-1426 # 80025ff0 <__FUNCTION__.3277>
    8000358a:	0001e517          	auipc	a0,0x1e
    8000358e:	66650513          	addi	a0,a0,1638 # 80021bf0 <__clzdi2+0x74a>
    80003592:	5a6010ef          	jal	ra,80004b38 <rt_assert_handler>
    80003596:	fc843503          	ld	a0,-56(s0)
    8000359a:	b25fe0ef          	jal	ra,800020be <rt_cpus_unlock>
    8000359e:	fd043503          	ld	a0,-48(s0)
    800035a2:	b1dfe0ef          	jal	ra,800020be <rt_cpus_unlock>
    800035a6:	36d030ef          	jal	ra,80007112 <rt_thread_self>
    800035aa:	fca43023          	sd	a0,-64(s0)
    800035ae:	a9dfe0ef          	jal	ra,8000204a <rt_cpus_lock>
    800035b2:	84aa                	mv	s1,a0
    800035b4:	00028797          	auipc	a5,0x28
    800035b8:	c6c78793          	addi	a5,a5,-916 # 8002b220 <rt_object_put_hook>
    800035bc:	639c                	ld	a5,0(a5)
    800035be:	cb91                	beqz	a5,800035d2 <rt_mutex_release+0x110>
    800035c0:	00028797          	auipc	a5,0x28
    800035c4:	c6078793          	addi	a5,a5,-928 # 8002b220 <rt_object_put_hook>
    800035c8:	6398                	ld	a4,0(a5)
    800035ca:	fb843783          	ld	a5,-72(s0)
    800035ce:	853e                	mv	a0,a5
    800035d0:	9702                	jalr	a4
    800035d2:	fb843783          	ld	a5,-72(s0)
    800035d6:	7f9c                	ld	a5,56(a5)
    800035d8:	fc043703          	ld	a4,-64(s0)
    800035dc:	00f70b63          	beq	a4,a5,800035f2 <rt_mutex_release+0x130>
    800035e0:	fc043783          	ld	a5,-64(s0)
    800035e4:	577d                	li	a4,-1
    800035e6:	efb8                	sd	a4,88(a5)
    800035e8:	8526                	mv	a0,s1
    800035ea:	ad5fe0ef          	jal	ra,800020be <rt_cpus_unlock>
    800035ee:	57fd                	li	a5,-1
    800035f0:	a8e5                	j	800036e8 <rt_mutex_release+0x226>
    800035f2:	fb843783          	ld	a5,-72(s0)
    800035f6:	0337c783          	lbu	a5,51(a5)
    800035fa:	37fd                	addiw	a5,a5,-1
    800035fc:	0ff7f713          	andi	a4,a5,255
    80003600:	fb843783          	ld	a5,-72(s0)
    80003604:	02e789a3          	sb	a4,51(a5)
    80003608:	fb843783          	ld	a5,-72(s0)
    8000360c:	0337c783          	lbu	a5,51(a5)
    80003610:	efdd                	bnez	a5,800036ce <rt_mutex_release+0x20c>
    80003612:	fb843783          	ld	a5,-72(s0)
    80003616:	0327c703          	lbu	a4,50(a5)
    8000361a:	fb843783          	ld	a5,-72(s0)
    8000361e:	7f9c                	ld	a5,56(a5)
    80003620:	06a7c783          	lbu	a5,106(a5)
    80003624:	00f70e63          	beq	a4,a5,80003640 <rt_mutex_release+0x17e>
    80003628:	fb843783          	ld	a5,-72(s0)
    8000362c:	7f98                	ld	a4,56(a5)
    8000362e:	fb843783          	ld	a5,-72(s0)
    80003632:	03278793          	addi	a5,a5,50
    80003636:	863e                	mv	a2,a5
    80003638:	4589                	li	a1,2
    8000363a:	853a                	mv	a0,a4
    8000363c:	67b030ef          	jal	ra,800074b6 <rt_thread_control>
    80003640:	fb843783          	ld	a5,-72(s0)
    80003644:	02078793          	addi	a5,a5,32
    80003648:	853e                	mv	a0,a5
    8000364a:	d0aff0ef          	jal	ra,80002b54 <rt_list_isempty>
    8000364e:	87aa                	mv	a5,a0
    80003650:	ebb1                	bnez	a5,800036a4 <rt_mutex_release+0x1e2>
    80003652:	fb843783          	ld	a5,-72(s0)
    80003656:	739c                	ld	a5,32(a5)
    80003658:	1781                	addi	a5,a5,-32
    8000365a:	fcf43023          	sd	a5,-64(s0)
    8000365e:	fb843783          	ld	a5,-72(s0)
    80003662:	fc043703          	ld	a4,-64(s0)
    80003666:	ff98                	sd	a4,56(a5)
    80003668:	fc043783          	ld	a5,-64(s0)
    8000366c:	06a7c703          	lbu	a4,106(a5)
    80003670:	fb843783          	ld	a5,-72(s0)
    80003674:	02e78923          	sb	a4,50(a5)
    80003678:	fb843783          	ld	a5,-72(s0)
    8000367c:	0337c783          	lbu	a5,51(a5)
    80003680:	2785                	addiw	a5,a5,1
    80003682:	0ff7f713          	andi	a4,a5,255
    80003686:	fb843783          	ld	a5,-72(s0)
    8000368a:	02e789a3          	sb	a4,51(a5)
    8000368e:	fb843783          	ld	a5,-72(s0)
    80003692:	02078793          	addi	a5,a5,32
    80003696:	853e                	mv	a0,a5
    80003698:	dd6ff0ef          	jal	ra,80002c6e <rt_ipc_list_resume>
    8000369c:	4785                	li	a5,1
    8000369e:	fcf42e23          	sw	a5,-36(s0)
    800036a2:	a035                	j	800036ce <rt_mutex_release+0x20c>
    800036a4:	fb843783          	ld	a5,-72(s0)
    800036a8:	0307d783          	lhu	a5,48(a5)
    800036ac:	2785                	addiw	a5,a5,1
    800036ae:	03079713          	slli	a4,a5,0x30
    800036b2:	9341                	srli	a4,a4,0x30
    800036b4:	fb843783          	ld	a5,-72(s0)
    800036b8:	02e79823          	sh	a4,48(a5)
    800036bc:	fb843783          	ld	a5,-72(s0)
    800036c0:	0207bc23          	sd	zero,56(a5)
    800036c4:	fb843783          	ld	a5,-72(s0)
    800036c8:	577d                	li	a4,-1
    800036ca:	02e78923          	sb	a4,50(a5)
    800036ce:	8526                	mv	a0,s1
    800036d0:	9effe0ef          	jal	ra,800020be <rt_cpus_unlock>
    800036d4:	fdc42783          	lw	a5,-36(s0)
    800036d8:	0007871b          	sext.w	a4,a5
    800036dc:	4785                	li	a5,1
    800036de:	00f71463          	bne	a4,a5,800036e6 <rt_mutex_release+0x224>
    800036e2:	4d5010ef          	jal	ra,800053b6 <rt_schedule>
    800036e6:	4781                	li	a5,0
    800036e8:	853e                	mv	a0,a5
    800036ea:	60a6                	ld	ra,72(sp)
    800036ec:	6406                	ld	s0,64(sp)
    800036ee:	74e2                	ld	s1,56(sp)
    800036f0:	6161                	addi	sp,sp,80
    800036f2:	8082                	ret

00000000800036f4 <rt_interrupt_enter>:
    800036f4:	1101                	addi	sp,sp,-32
    800036f6:	ec06                	sd	ra,24(sp)
    800036f8:	e822                	sd	s0,16(sp)
    800036fa:	1000                	addi	s0,sp,32
    800036fc:	94ffe0ef          	jal	ra,8000204a <rt_cpus_lock>
    80003700:	fea43423          	sd	a0,-24(s0)
    80003704:	8f1fe0ef          	jal	ra,80001ff4 <rt_cpu_self>
    80003708:	87aa                	mv	a5,a0
    8000370a:	0087d703          	lhu	a4,8(a5)
    8000370e:	2705                	addiw	a4,a4,1
    80003710:	1742                	slli	a4,a4,0x30
    80003712:	9341                	srli	a4,a4,0x30
    80003714:	00e79423          	sh	a4,8(a5)
    80003718:	00028797          	auipc	a5,0x28
    8000371c:	ac078793          	addi	a5,a5,-1344 # 8002b1d8 <rt_interrupt_enter_hook>
    80003720:	639c                	ld	a5,0(a5)
    80003722:	c799                	beqz	a5,80003730 <rt_interrupt_enter+0x3c>
    80003724:	00028797          	auipc	a5,0x28
    80003728:	ab478793          	addi	a5,a5,-1356 # 8002b1d8 <rt_interrupt_enter_hook>
    8000372c:	639c                	ld	a5,0(a5)
    8000372e:	9782                	jalr	a5
    80003730:	fe843503          	ld	a0,-24(s0)
    80003734:	98bfe0ef          	jal	ra,800020be <rt_cpus_unlock>
    80003738:	0001                	nop
    8000373a:	60e2                	ld	ra,24(sp)
    8000373c:	6442                	ld	s0,16(sp)
    8000373e:	6105                	addi	sp,sp,32
    80003740:	8082                	ret

0000000080003742 <rt_interrupt_leave>:
    80003742:	1101                	addi	sp,sp,-32
    80003744:	ec06                	sd	ra,24(sp)
    80003746:	e822                	sd	s0,16(sp)
    80003748:	1000                	addi	s0,sp,32
    8000374a:	901fe0ef          	jal	ra,8000204a <rt_cpus_lock>
    8000374e:	fea43423          	sd	a0,-24(s0)
    80003752:	8a3fe0ef          	jal	ra,80001ff4 <rt_cpu_self>
    80003756:	87aa                	mv	a5,a0
    80003758:	0087d703          	lhu	a4,8(a5)
    8000375c:	377d                	addiw	a4,a4,-1
    8000375e:	1742                	slli	a4,a4,0x30
    80003760:	9341                	srli	a4,a4,0x30
    80003762:	00e79423          	sh	a4,8(a5)
    80003766:	00028797          	auipc	a5,0x28
    8000376a:	a7a78793          	addi	a5,a5,-1414 # 8002b1e0 <rt_interrupt_leave_hook>
    8000376e:	639c                	ld	a5,0(a5)
    80003770:	c799                	beqz	a5,8000377e <rt_interrupt_leave+0x3c>
    80003772:	00028797          	auipc	a5,0x28
    80003776:	a6e78793          	addi	a5,a5,-1426 # 8002b1e0 <rt_interrupt_leave_hook>
    8000377a:	639c                	ld	a5,0(a5)
    8000377c:	9782                	jalr	a5
    8000377e:	fe843503          	ld	a0,-24(s0)
    80003782:	93dfe0ef          	jal	ra,800020be <rt_cpus_unlock>
    80003786:	0001                	nop
    80003788:	60e2                	ld	ra,24(sp)
    8000378a:	6442                	ld	s0,16(sp)
    8000378c:	6105                	addi	sp,sp,32
    8000378e:	8082                	ret

0000000080003790 <rt_interrupt_get_nest>:
    80003790:	1101                	addi	sp,sp,-32
    80003792:	ec06                	sd	ra,24(sp)
    80003794:	e822                	sd	s0,16(sp)
    80003796:	1000                	addi	s0,sp,32
    80003798:	8b3fe0ef          	jal	ra,8000204a <rt_cpus_lock>
    8000379c:	fea43423          	sd	a0,-24(s0)
    800037a0:	855fe0ef          	jal	ra,80001ff4 <rt_cpu_self>
    800037a4:	87aa                	mv	a5,a0
    800037a6:	0087d783          	lhu	a5,8(a5)
    800037aa:	fef403a3          	sb	a5,-25(s0)
    800037ae:	fe843503          	ld	a0,-24(s0)
    800037b2:	90dfe0ef          	jal	ra,800020be <rt_cpus_unlock>
    800037b6:	fe744783          	lbu	a5,-25(s0)
    800037ba:	853e                	mv	a0,a5
    800037bc:	60e2                	ld	ra,24(sp)
    800037be:	6442                	ld	s0,16(sp)
    800037c0:	6105                	addi	sp,sp,32
    800037c2:	8082                	ret

00000000800037c4 <rt_set_errno>:
    800037c4:	7179                	addi	sp,sp,-48
    800037c6:	f406                	sd	ra,40(sp)
    800037c8:	f022                	sd	s0,32(sp)
    800037ca:	1800                	addi	s0,sp,48
    800037cc:	fca43c23          	sd	a0,-40(s0)
    800037d0:	fc1ff0ef          	jal	ra,80003790 <rt_interrupt_get_nest>
    800037d4:	87aa                	mv	a5,a0
    800037d6:	cb99                	beqz	a5,800037ec <rt_set_errno+0x28>
    800037d8:	fd843783          	ld	a5,-40(s0)
    800037dc:	0007871b          	sext.w	a4,a5
    800037e0:	00028797          	auipc	a5,0x28
    800037e4:	a0878793          	addi	a5,a5,-1528 # 8002b1e8 <__rt_errno>
    800037e8:	c398                	sw	a4,0(a5)
    800037ea:	a03d                	j	80003818 <rt_set_errno+0x54>
    800037ec:	127030ef          	jal	ra,80007112 <rt_thread_self>
    800037f0:	fea43423          	sd	a0,-24(s0)
    800037f4:	fe843783          	ld	a5,-24(s0)
    800037f8:	eb99                	bnez	a5,8000380e <rt_set_errno+0x4a>
    800037fa:	fd843783          	ld	a5,-40(s0)
    800037fe:	0007871b          	sext.w	a4,a5
    80003802:	00028797          	auipc	a5,0x28
    80003806:	9e678793          	addi	a5,a5,-1562 # 8002b1e8 <__rt_errno>
    8000380a:	c398                	sw	a4,0(a5)
    8000380c:	a031                	j	80003818 <rt_set_errno+0x54>
    8000380e:	fe843783          	ld	a5,-24(s0)
    80003812:	fd843703          	ld	a4,-40(s0)
    80003816:	efb8                	sd	a4,88(a5)
    80003818:	70a2                	ld	ra,40(sp)
    8000381a:	7402                	ld	s0,32(sp)
    8000381c:	6145                	addi	sp,sp,48
    8000381e:	8082                	ret

0000000080003820 <_rt_errno>:
    80003820:	1101                	addi	sp,sp,-32
    80003822:	ec06                	sd	ra,24(sp)
    80003824:	e822                	sd	s0,16(sp)
    80003826:	1000                	addi	s0,sp,32
    80003828:	f69ff0ef          	jal	ra,80003790 <rt_interrupt_get_nest>
    8000382c:	87aa                	mv	a5,a0
    8000382e:	c791                	beqz	a5,8000383a <_rt_errno+0x1a>
    80003830:	00028797          	auipc	a5,0x28
    80003834:	9b878793          	addi	a5,a5,-1608 # 8002b1e8 <__rt_errno>
    80003838:	a00d                	j	8000385a <_rt_errno+0x3a>
    8000383a:	0d9030ef          	jal	ra,80007112 <rt_thread_self>
    8000383e:	fea43423          	sd	a0,-24(s0)
    80003842:	fe843783          	ld	a5,-24(s0)
    80003846:	c791                	beqz	a5,80003852 <_rt_errno+0x32>
